
/home/jackyhsieh/Q628_Kernel54/boot/trusted-firmware-a/build/q645/release/bl31/bl31.elf:     file format elf64-littleaarch64
/home/jackyhsieh/Q628_Kernel54/boot/trusted-firmware-a/build/q645/release/bl31/bl31.elf
architecture: aarch64, flags 0x00000112:
EXEC_P, HAS_SYMS, D_PAGED
start address 0x0000000000200000

Program Header:
    LOAD off    0x0000000000010000 vaddr 0x0000000000200000 paddr 0x0000000000200000 align 2**16
         filesz 0x000000000000616e memsz 0x0000000000012000 flags rwx
   STACK off    0x0000000000000000 vaddr 0x0000000000000000 paddr 0x0000000000000000 align 2**4
         filesz 0x0000000000000000 memsz 0x0000000000000000 flags rw-
private flags = 0:

Sections:
Idx Name          Size      VMA               LMA               File off  Algn
  0 .text         00005000  0000000000200000  0000000000200000  00010000  2**11
                  CONTENTS, ALLOC, LOAD, READONLY, CODE
  1 .rodata       00001000  0000000000205000  0000000000205000  00015000  2**3
                  CONTENTS, ALLOC, LOAD, READONLY, DATA
  2 .data         0000016e  0000000000206000  0000000000206000  00016000  2**3
                  CONTENTS, ALLOC, LOAD, DATA
  3 stacks        00002000  0000000000206180  0000000000206180  0001616e  2**6
                  ALLOC
  4 .bss          00000ea0  0000000000208180  0000000000208180  0001616e  2**6
                  ALLOC
  5 xlat_table    00008000  000000000020a000  000000000020a000  0001616e  2**12
                  ALLOC
  6 .comment      0000005a  0000000000000000  0000000000000000  0001616e  2**0
                  CONTENTS, READONLY
  7 .debug_frame  00000c20  0000000000000000  0000000000000000  000161c8  2**3
                  CONTENTS, READONLY, DEBUGGING
SYMBOL TABLE:
0000000000200000 l    d  .text	0000000000000000 .text
0000000000205000 l    d  .rodata	0000000000000000 .rodata
0000000000206000 l    d  .data	0000000000000000 .data
0000000000206180 l    d  stacks	0000000000000000 stacks
0000000000208180 l    d  .bss	0000000000000000 .bss
000000000020a000 l    d  xlat_table	0000000000000000 xlat_table
0000000000000000 l    d  .comment	0000000000000000 .comment
0000000000000000 l    d  .debug_frame	0000000000000000 .debug_frame
0000000000000000 l    df *ABS*	0000000000000000 /home/jackyhsieh/Q628_Kernel54/boot/trusted-firmware-a/build/q645/release/bl31/bl31_entrypoint.o
000000000020002c l       .text	0000000000000000 do_cold_boot
00000000002000a4 l       .text	0000000000000000 do_primary_cold_boot
0000000000000000 l    df *ABS*	0000000000000000 arm_arch_svc_setup.c
00000000002001bc l     F .text	0000000000000130 arm_arch_svc_smc_handler
0000000000205720 l     O .rodata	0000000000000020 __svc_desc_arm_arch_svc
0000000000000000 l    df *ABS*	0000000000000000 /home/jackyhsieh/Q628_Kernel54/boot/trusted-firmware-a/build/q645/release/bl31/cpu_data.o
0000000000000000 l    df *ABS*	0000000000000000 /home/jackyhsieh/Q628_Kernel54/boot/trusted-firmware-a/build/q645/release/bl31/debug.o
000000000020570a l       .rodata	0000000000000000 panic_msg
00000000002003e4 l       .text	0000000000000000 panic_common
0000000000200408 l       .text	0000000000000000 _panic_handler
0000000000000000 l    df *ABS*	0000000000000000 /home/jackyhsieh/Q628_Kernel54/boot/trusted-firmware-a/build/q645/release/bl31/platform_helpers.o
0000000000000000 l    df *ABS*	0000000000000000 /home/jackyhsieh/Q628_Kernel54/boot/trusted-firmware-a/build/q645/release/bl31/cpu_helpers.o
0000000000000008 l       *ABS*	0000000000000000 CPU_MIDR_SIZE
0000000000000008 l       *ABS*	0000000000000000 CPU_EXTRA1_FUNC_SIZE
0000000000000008 l       *ABS*	0000000000000000 CPU_EXTRA2_FUNC_SIZE
0000000000000008 l       *ABS*	0000000000000000 CPU_E_HANDLER_FUNC_SIZE
0000000000000008 l       *ABS*	0000000000000000 CPU_RESET_FUNC_SIZE
0000000000000010 l       *ABS*	0000000000000000 CPU_PWR_DWN_OPS_SIZE
0000000000000000 l       *ABS*	0000000000000000 CPU_ERRATA_FUNC_SIZE
0000000000000000 l       *ABS*	0000000000000000 CPU_ERRATA_LOCK_SIZE
0000000000000000 l       *ABS*	0000000000000000 CPU_ERRATA_PRINTED_SIZE
0000000000000000 l       *ABS*	0000000000000000 CPU_REG_DUMP_SIZE
0000000000000000 l       *ABS*	0000000000000000 CPU_MIDR
0000000000000008 l       *ABS*	0000000000000000 CPU_RESET_FUNC
0000000000000010 l       *ABS*	0000000000000000 CPU_EXTRA1_FUNC
0000000000000018 l       *ABS*	0000000000000000 CPU_EXTRA2_FUNC
0000000000000020 l       *ABS*	0000000000000000 CPU_E_HANDLER_FUNC
0000000000000028 l       *ABS*	0000000000000000 CPU_PWR_DWN_OPS
0000000000000038 l       *ABS*	0000000000000000 CPU_ERRATA_FUNC
0000000000000038 l       *ABS*	0000000000000000 CPU_ERRATA_LOCK
0000000000000038 l       *ABS*	0000000000000000 CPU_ERRATA_PRINTED
0000000000000038 l       *ABS*	0000000000000000 CPU_REG_DUMP
0000000000000038 l       *ABS*	0000000000000000 CPU_OPS_SIZE
00000000002006c0 l       .text	0000000000000000 search_def_ptr
0000000000000000 l    df *ABS*	0000000000000000 /home/jackyhsieh/Q628_Kernel54/boot/trusted-firmware-a/build/q645/release/bl31/cache_helpers.o
0000000000200680 l       .text	0000000000000000 exit_loop_civac
000000000020066c l       .text	0000000000000000 loop_civac
00000000002003a4 l       .text	0000000000000000 exit_loop_cvac
0000000000200390 l       .text	0000000000000000 loop_cvac
000000000020072c l       .text	0000000000000000 exit_loop_ivac
0000000000200718 l       .text	0000000000000000 loop_ivac
0000000000000000 l    df *ABS*	0000000000000000 /home/jackyhsieh/Q628_Kernel54/boot/trusted-firmware-a/build/q645/release/bl31/cortex_a55.o
0000000000000008 l       *ABS*	0000000000000000 CPU_MIDR_SIZE
0000000000000008 l       *ABS*	0000000000000000 CPU_EXTRA1_FUNC_SIZE
0000000000000008 l       *ABS*	0000000000000000 CPU_EXTRA2_FUNC_SIZE
0000000000000008 l       *ABS*	0000000000000000 CPU_E_HANDLER_FUNC_SIZE
0000000000000008 l       *ABS*	0000000000000000 CPU_RESET_FUNC_SIZE
0000000000000010 l       *ABS*	0000000000000000 CPU_PWR_DWN_OPS_SIZE
0000000000000000 l       *ABS*	0000000000000000 CPU_ERRATA_FUNC_SIZE
0000000000000000 l       *ABS*	0000000000000000 CPU_ERRATA_LOCK_SIZE
0000000000000000 l       *ABS*	0000000000000000 CPU_ERRATA_PRINTED_SIZE
0000000000000000 l       *ABS*	0000000000000000 CPU_REG_DUMP_SIZE
0000000000000000 l       *ABS*	0000000000000000 CPU_MIDR
0000000000000008 l       *ABS*	0000000000000000 CPU_RESET_FUNC
0000000000000010 l       *ABS*	0000000000000000 CPU_EXTRA1_FUNC
0000000000000018 l       *ABS*	0000000000000000 CPU_EXTRA2_FUNC
0000000000000020 l       *ABS*	0000000000000000 CPU_E_HANDLER_FUNC
0000000000000028 l       *ABS*	0000000000000000 CPU_PWR_DWN_OPS
0000000000000038 l       *ABS*	0000000000000000 CPU_ERRATA_FUNC
0000000000000038 l       *ABS*	0000000000000000 CPU_ERRATA_LOCK
0000000000000038 l       *ABS*	0000000000000000 CPU_ERRATA_PRINTED
0000000000000038 l       *ABS*	0000000000000000 CPU_REG_DUMP
0000000000000038 l       *ABS*	0000000000000000 CPU_OPS_SIZE
00000000002003bc l     F .text	0000000000000010 cortex_a55_reset_func
00000000002003a8 l     F .text	0000000000000014 cortex_a55_core_pwr_dwn
0000000000000000 l    df *ABS*	0000000000000000 /home/jackyhsieh/Q628_Kernel54/boot/trusted-firmware-a/build/q645/release/bl31/ea_delegate.o
0000000000000008 l       *ABS*	0000000000000000 CPU_MIDR_SIZE
0000000000000008 l       *ABS*	0000000000000000 CPU_EXTRA1_FUNC_SIZE
0000000000000008 l       *ABS*	0000000000000000 CPU_EXTRA2_FUNC_SIZE
0000000000000008 l       *ABS*	0000000000000000 CPU_E_HANDLER_FUNC_SIZE
0000000000000008 l       *ABS*	0000000000000000 CPU_RESET_FUNC_SIZE
0000000000000010 l       *ABS*	0000000000000000 CPU_PWR_DWN_OPS_SIZE
0000000000000000 l       *ABS*	0000000000000000 CPU_ERRATA_FUNC_SIZE
0000000000000000 l       *ABS*	0000000000000000 CPU_ERRATA_LOCK_SIZE
0000000000000000 l       *ABS*	0000000000000000 CPU_ERRATA_PRINTED_SIZE
0000000000000000 l       *ABS*	0000000000000000 CPU_REG_DUMP_SIZE
0000000000000000 l       *ABS*	0000000000000000 CPU_MIDR
0000000000000008 l       *ABS*	0000000000000000 CPU_RESET_FUNC
0000000000000010 l       *ABS*	0000000000000000 CPU_EXTRA1_FUNC
0000000000000018 l       *ABS*	0000000000000000 CPU_EXTRA2_FUNC
0000000000000020 l       *ABS*	0000000000000000 CPU_E_HANDLER_FUNC
0000000000000028 l       *ABS*	0000000000000000 CPU_PWR_DWN_OPS
0000000000000038 l       *ABS*	0000000000000000 CPU_ERRATA_FUNC
0000000000000038 l       *ABS*	0000000000000000 CPU_ERRATA_LOCK
0000000000000038 l       *ABS*	0000000000000000 CPU_ERRATA_PRINTED
0000000000000038 l       *ABS*	0000000000000000 CPU_REG_DUMP
0000000000000038 l       *ABS*	0000000000000000 CPU_OPS_SIZE
0000000000200410 l     F .text	0000000000000068 ea_proceed
00000000002003e0 l     F .text	0000000000000004 delegate_sync_ea
00000000002003dc l     F .text	0000000000000004 delegate_async_ea
0000000000000000 l    df *ABS*	0000000000000000 /home/jackyhsieh/Q628_Kernel54/boot/trusted-firmware-a/build/q645/release/bl31/context.o
0000000000000000 l    df *ABS*	0000000000000000 /home/jackyhsieh/Q628_Kernel54/boot/trusted-firmware-a/build/q645/release/bl31/enable_mmu.o
0000000000000000 l    df *ABS*	0000000000000000 /home/jackyhsieh/Q628_Kernel54/boot/trusted-firmware-a/build/q645/release/bl31/crash_console_helpers.o
0000000000206168 l       .data	0000000000000000 crash_console_spinlock
000000000020616d l       .data	0000000000000000 crash_console_triggered
0000000000206138 l       .data	0000000000000000 crash_console_reg_stash
00000000002007a4 l       .text	0000000000000000 skip_spinlock
00000000002007c0 l       .text	0000000000000000 init_error
00000000002007ec l       .text	0000000000000000 putc_loop
0000000000200838 l       .text	0000000000000000 putc_done
0000000000200830 l       .text	0000000000000000 putc_continue
0000000000200824 l       .text	0000000000000000 putc
0000000000200748 l       .text	0000000000000000 flush_loop
0000000000200770 l       .text	0000000000000000 flush_done
0000000000200768 l       .text	0000000000000000 flush_continue
0000000000000000 l    df *ABS*	0000000000000000 /home/jackyhsieh/Q628_Kernel54/boot/trusted-firmware-a/build/q645/release/bl31/sp_helpers.o
00000000002008d0 l       .text	0000000000000000 poll_hold_entry
0000000000000000 l    df *ABS*	0000000000000000 /home/jackyhsieh/Q628_Kernel54/boot/trusted-firmware-a/build/q645/release/bl31/platform_mp_stack.o
0000000000206180 l       stacks	0000000000000000 platform_normal_stacks
0000000000000006 l       *ABS*	0000000000000000 TZ_COUNT
0000000000000000 l    df *ABS*	0000000000000000 /home/jackyhsieh/Q628_Kernel54/boot/trusted-firmware-a/build/q645/release/bl31/plat_helpers.o
0000000000000000 l    df *ABS*	0000000000000000 /home/jackyhsieh/Q628_Kernel54/boot/trusted-firmware-a/build/q645/release/bl31/psci_helpers.o
0000000000000000 l    df *ABS*	0000000000000000 /home/jackyhsieh/Q628_Kernel54/boot/trusted-firmware-a/build/q645/release/bl31/crash_reporting.o
0000000000000000 l    df *ABS*	0000000000000000 /home/jackyhsieh/Q628_Kernel54/boot/trusted-firmware-a/build/q645/release/bl31/runtime_exceptions.o
0000000000200a88 l       .text	0000000000000000 smc_handler32
0000000000200a8c l       .text	0000000000000000 smc_handler64
0000000000204ce4 l       .text	0000000000000000 interrupt_exit_irq_aarch64
0000000000204d64 l       .text	0000000000000000 interrupt_exit_fiq_aarch64
0000000000204ee4 l       .text	0000000000000000 interrupt_exit_irq_aarch32
0000000000204f64 l       .text	0000000000000000 interrupt_exit_fiq_aarch32
0000000000200a88 l     F .text	000000000000009c smc_handler
0000000000200af8 l       .text	0000000000000000 smc_prohibited
0000000000200aec l       .text	0000000000000000 smc_unknown
0000000000000000 l    df *ABS*	0000000000000000 /home/jackyhsieh/Q628_Kernel54/boot/trusted-firmware-a/build/q645/release/bl31/sp_console.o
0000000000000000 l    df *ABS*	0000000000000000 /home/jackyhsieh/Q628_Kernel54/boot/trusted-firmware-a/build/q645/release/bl31/spinlock.o
0000000000200b70 l       .text	0000000000000000 l1
0000000000200b74 l       .text	0000000000000000 l2
0000000000000000 l    df *ABS*	0000000000000000 /home/jackyhsieh/Q628_Kernel54/boot/trusted-firmware-a/build/q645/release/bl31/misc_helpers.o
0000000000200b98 l     F .text	00000000000000e8 zeromem_dczva
0000000000000000 l    df *ABS*	0000000000000000 sp_bl31_setup.c
0000000000208bd8 l     O .bss	0000000000000058 bl32_image_ep_info
0000000000208c30 l     O .bss	0000000000000058 bl33_image_ep_info
0000000000205028 l     O .rodata	0000000000000030 sp_gic_data
0000000000000000 l    df *ABS*	0000000000000000 bl31_main.c
0000000000208b00 l     O .bss	0000000000000008 bl32_init
0000000000206160 l     O .data	0000000000000004 next_image_type
0000000000205000 l     O .rodata	0000000000000010 psci_args.3014
0000000000000000 l    df *ABS*	0000000000000000 context_mgmt.c
0000000000000000 l    df *ABS*	0000000000000000 bl31_context_mgmt.c
0000000000000000 l    df *ABS*	0000000000000000 multi_console.c
0000000000000000 l    df *ABS*	0000000000000000 xlat_tables_context.c
0000000000208e08 l     O .bss	0000000000000140 tf_mmap
00000000002060a8 l     O .data	0000000000000060 tf_xlat_ctx
000000000020a000 l     O xlat_table	0000000000008000 tf_xlat_tables
0000000000209000 l     O .bss	0000000000000020 tf_base_xlat_table
0000000000000000 l    df *ABS*	0000000000000000 generic_delay_timer.c
000000000020152c l     F .text	000000000000000c get_timer_value
0000000000208b78 l     O .bss	0000000000000010 ops
0000000000000000 l    df *ABS*	0000000000000000 interrupt_mgmt.c
0000000000208b08 l     O .bss	0000000000000060 intr_type_descs
0000000000000000 l    df *ABS*	0000000000000000 gic_common.c
0000000000000000 l    df *ABS*	0000000000000000 gicv2_main.c
0000000000208b68 l     O .bss	0000000000000008 driver_data
0000000000000000 l    df *ABS*	0000000000000000 gicv2_helpers.c
0000000000000000 l    df *ABS*	0000000000000000 xlat_tables_core.c
000000000020441c l     F .text	00000000000001c0 xlat_tables_map_region
0000000000000000 l    df *ABS*	0000000000000000 delay_timer.c
0000000000208b70 l     O .bss	0000000000000008 timer_ops
0000000000000000 l    df *ABS*	0000000000000000 memcpy.c
0000000000000000 l    df *ABS*	0000000000000000 memmove.c
0000000000000000 l    df *ABS*	0000000000000000 memset.c
0000000000000000 l    df *ABS*	0000000000000000 plat_common.c
0000000000000000 l    df *ABS*	0000000000000000 sp_topology.c
00000000002054e9 l     O .rodata	0000000000000003 plat_power_domain_tree_desc
0000000000000000 l    df *ABS*	0000000000000000 plat_bl_common.c
0000000000000000 l    df *ABS*	0000000000000000 sp_common.c
0000000000205080 l     O .rodata	00000000000000c8 sp_mmap
0000000000000000 l    df *ABS*	0000000000000000 plat_psci_common.c
0000000000000000 l    df *ABS*	0000000000000000 plat_gicv2.c
0000000000000000 l    df *ABS*	0000000000000000 plat_log_common.c
0000000000205058 l     O .rodata	0000000000000028 plat_prefix_str
0000000000000000 l    df *ABS*	0000000000000000 sp_pm.c
0000000000203bd4 l     F .text	000000000000005c sp_system_reset
0000000000203b88 l     F .text	000000000000004c sp_system_off
0000000000203b64 l     F .text	0000000000000018 sp_pwr_down_wfi
0000000000203a74 l     F .text	00000000000000f0 sp_pwr_domain_on_finish
0000000000208c88 l     O .bss	0000000000000160 next_ep_info
0000000000206000 l     O .data	00000000000000a8 sp_psci_ops
0000000000205520 l     O .rodata	000000000000000e __func__.2988
000000000020552e l     O .rodata	0000000000000010 __func__.2993
000000000020553e l     O .rodata	0000000000000014 __func__.3000
0000000000000000 l    df *ABS*	0000000000000000 bl_common.c
0000000000000000 l    df *ABS*	0000000000000000 psci_common.c
0000000000208ff8 l     O .bss	0000000000000008 psci_req_local_pwr_states
0000000000205010 l     O .rodata	0000000000000018 psci_state_type_str.3297
0000000000000000 l    df *ABS*	0000000000000000 psci_main.c
0000000000000000 l    df *ABS*	0000000000000000 psci_setup.c
0000000000208280 l     O .bss	0000000000000880 psci_ns_context
0000000000000000 l    df *ABS*	0000000000000000 psci_on.c
0000000000000000 l    df *ABS*	0000000000000000 psci_suspend.c
0000000000000000 l    df *ABS*	0000000000000000 psci_off.c
0000000000000000 l    df *ABS*	0000000000000000 psci_mem_protect.c
0000000000000000 l    df *ABS*	0000000000000000 psci_system_off.c
0000000000000000 l    df *ABS*	0000000000000000 putchar.c
0000000000000000 l    df *ABS*	0000000000000000 runtime_svc.c
0000000000000000 l    df *ABS*	0000000000000000 xlat_tables_arch.c
0000000000000000 l    df *ABS*	0000000000000000 sp_console_setup.c
0000000000206108 l     O .data	0000000000000030 sp_console
0000000000000000 l    df *ABS*	0000000000000000 sp_cpu_ops.c
00000000002054c4 l     O .rodata	000000000000000b __func__.1120
00000000002054cf l     O .rodata	000000000000001a __func__.1128
0000000000000000 l    df *ABS*	0000000000000000 std_svc_setup.c
0000000000203c30 l     F .text	0000000000000024 std_svc_setup
0000000000203c54 l     F .text	00000000000000bc std_svc_smc_handler
0000000000205740 l     O .rodata	0000000000000020 __svc_desc_std_svc
0000000000000000 l    df *ABS*	0000000000000000 tf_log.c
0000000000206164 l     O .data	0000000000000004 max_log_level
0000000000000000 l    df *ABS*	0000000000000000 printf.c
0000000000203e64 l     F .text	00000000000000d0 unsigned_num_print
0000000000000000 l    df *ABS*	0000000000000000 xlat_tables_utils.c
0000000000000000 l    df *ABS*	0000000000000000 
00000000002037d4 g     F .text	000000000000002c putchar
0000000000201024 g     F .text	00000000000000c0 cm_prepare_el3_exit
0000000000201ab4 g     F .text	000000000000000c mdelay
0000000000201f64  w    F .text	0000000000000008 plat_is_smccc_feature_available
0000000000209000 g       .bss	0000000000000000 __PMF_TIMESTAMP_START__
0000000000201f34  w    F .text	0000000000000030 plat_ic_get_pending_interrupt_type
0000000000200f1c g     F .text	000000000000007c cm_el1_sysregs_context_restore
0000000000202cdc g     F .text	0000000000000028 psci_migrate_info_up_cpu
0000000000212000 g       xlat_table	0000000000000000 __BL31_END__
00000000002013ec g     F .text	0000000000000034 console_register
000000000020238c g     F .text	00000000000000ec psci_cpu_suspend
0000000000200958 g     F .text	0000000000000020 reset_handler
0000000000204e00 g     F .text	0000000000000000 sync_exception_aarch32
0000000000200b90 g     F .text	0000000000000008 zeromem
00000000002051c0 g     O .rodata	0000000000000016 version_string
0000000000205798 g       .rodata	0000000000000000 __pubsub_psci_suspend_pwrdown_finish_end
00000000002035d8 g     F .text	00000000000000f4 psci_validate_entry_point
0000000000201b9c g     F .text	000000000000003c mmap_add_ctx
0000000000201fdc g     F .text	0000000000000038 print_entry_point_info
0000000000200f98 g     F .text	000000000000000c cm_get_context
0000000000208df0 g     O .bss	0000000000000018 mmu_cfg_params
00000000002045dc g     F .text	0000000000000004 xlat_tables_print
0000000000202ea0 g     F .text	0000000000000058 psci_release_pwr_domain_locks
0000000000201e44 g     F .text	0000000000000008 plat_core_pos_by_mpidr
00000000002036ec g     F .text	0000000000000028 psci_validate_power_state
0000000000206000 g       .rodata	0000000000000000 __RW_START__
0000000000201670 g     F .text	0000000000000020 gicv2_cpuif_enable
0000000000202478 g     F .text	00000000000000a0 psci_cpu_suspend_finish
00000000002009e0 g     F .text	0000000000000034 save_and_update_ptw_el1_sys_regs
0000000000200d6c g     F .text	0000000000000038 bl31_plat_get_next_image_ep_info
00000000002003e4 g     F .text	000000000000002c do_panic
0000000000201690 g     F .text	0000000000000058 gicv2_distif_init
0000000000201ae0 g     F .text	0000000000000034 memmove
0000000000208f78 g     O .bss	0000000000000080 rt_svc_descs_indices
000000000020163c g     F .text	0000000000000014 gicd_write_isenabler
0000000000201f9c g     F .text	0000000000000040 plat_setup_psci_ops
0000000000204a00 g     F .text	0000000000000000 sync_exception_sp_elx
0000000000203930 g     F .text	000000000000007c setup_mmu_cfg
0000000000204800 g     F .text	0000000000000000 sync_exception_sp_el0
0000000000203a3c g     F .text	000000000000001c sp_cpu_off
0000000000200948 g     F .text	000000000000000c psci_power_down_wfi
0000000000202080 g     F .text	0000000000000058 psci_affinity_info
0000000000201f6c  w    F .text	0000000000000030 plat_log_get_prefix
0000000000202c48 g     F .text	000000000000007c psci_migrate
00000000002051a2 g     O .rodata	000000000000001e build_message
0000000000200518 g     F .text	0000000000000048 el3_exit
0000000000202fa0 g     F .text	000000000000032c psci_setup
0000000000201994 g     F .text	000000000000003c init_xlat_tables
0000000000200da4 g     F .text	0000000000000050 bl31_plat_runtime_setup
0000000000206000 g       .data	0000000000000000 __DATA_START__
0000000000208f48 g     O .bss	0000000000000008 psci_locks
00000000002029d0 g     F .text	0000000000000034 psci_find_target_suspend_lvl
000000000020432c g     F .text	0000000000000014 xlat_arch_regime_get_xn_desc
00000000002015e4 g     F .text	000000000000000c gicd_set_isenabler
00000000002020d8 g     F .text	000000000000001c psci_arch_setup
0000000000200350 g     F .text	0000000000000020 check_wa_cve_2017_5715
0000000000200a14 g     F .text	0000000000000074 save_gp_pmcr_pauth_regs
0000000000203484 g     F .text	0000000000000038 psci_system_reset
00000000002018f8 g     F .text	000000000000009c gicv2_spis_configure_defaults
00000000002015d0 g     F .text	0000000000000014 gicd_set_ipriorityr
0000000000201ac0 g     F .text	0000000000000020 memcpy
00000000002036cc g     F .text	0000000000000020 psci_validate_mpidr
0000000000203560 g     F .text	0000000000000078 psci_system_suspend
0000000000204b80 g     F .text	0000000000000000 serror_sp_elx
0000000000200fcc g     F .text	000000000000002c cm_init_context_by_index
0000000000204880 g     F .text	0000000000000000 irq_sp_el0
0000000000200b98 g     F .text	00000000000000e8 zero_normalmem
0000000000202a04 g     F .text	0000000000000048 psci_get_parent_pwr_domain_nodes
0000000000201e4c  w    F .text	0000000000000074 plat_ea_handler
0000000000201704 g     F .text	0000000000000018 gicv2_get_pending_interrupt_type
000000000020344c g     F .text	0000000000000038 psci_system_off
0000000000200920 g     F .text	0000000000000004 platform_mem_init
00000000002015f0 g     F .text	0000000000000014 gicd_write_icenabler
0000000000205798 g       .rodata	0000000000000000 __pubsub_cm_exited_secure_world_end
0000000000201b8c g     F .text	0000000000000010 mmap_add
000000000020013c g     F .text	0000000000000080 bl31_warm_entrypoint
0000000000201f00 g     F .text	000000000000000c plat_get_syscnt_freq2
00000000002008a0  w    F .text	0000000000000008 plat_panic_handler
0000000000205720 g       .rodata	0000000000000000 __RT_SVC_DESCS_START__
0000000000208180 g       stacks	0000000000000000 __STACKS_END__
0000000000205798 g       .rodata	0000000000000000 __pubsub_psci_suspend_pwrdown_start_end
0000000000209000 g       .bss	0000000000000000 __PERCPU_BAKERY_LOCK_END__
0000000000200370 g     F .text	0000000000000038 clean_dcache_range
0000000000200924 g     F .text	0000000000000024 prepare_cpu_pwr_dwn
0000000000200b24 g     F .text	0000000000000014 sp_console_flush
0000000000201e3c  w    F .text	0000000000000008 plat_arm_set_twedel_scr_el3
0000000000200978 g     F .text	0000000000000068 restore_gp_pmcr_pauth_regs
0000000000203714 g     F .text	00000000000000c0 psci_warmboot_entrypoint
0000000000205798 g       .rodata	0000000000000000 __pubsub_cm_exited_normal_world_start
0000000000200910  w    F .text	0000000000000010 plat_set_my_stack
00000000002010e4 g     F .text	0000000000000028 cm_set_context_by_index
0000000000205760 g       .rodata	0000000000000000 __RT_SVC_DESCS_END__
0000000000200304 g     F .text	0000000000000030 asm_print_hex
0000000000200d64 g     F .text	0000000000000008 bl31_plat_arch_setup
0000000000200cd4 g     F .text	0000000000000090 bl31_main
0000000000208b88 g     O .bss	0000000000000040 psci_cpu_pd_nodes
0000000000200334 g     F .text	0000000000000018 asm_print_str
000000000020034c  w    F .text	0000000000000004 bl31_plat_enable_mmu
0000000000200fc8 g     F .text	0000000000000004 cm_init
0000000000200730 g     F .text	0000000000000054 plat_crash_console_flush
0000000000204800 g       .text	0000000000000000 runtime_exceptions
0000000000205798 g       .rodata	0000000000000000 __pubsub_cm_exited_secure_world_start
0000000000203428 g     F .text	0000000000000024 psci_spd_migrate_info
00000000002002ec g     F .text	0000000000000018 _cpu_data_by_index
0000000000202d5c g     F .text	0000000000000130 psci_print_power_domain_map
0000000000201f0c g     F .text	0000000000000028 plat_get_target_pwr_state
0000000000201350 g     F .text	000000000000009c console_putc
00000000002008ac g     F .text	0000000000000054 plat_secondary_cold_boot_setup
0000000000201604 g     F .text	0000000000000014 gicd_write_icfgr
0000000000200878  w    F .text	0000000000000004 plat_handle_el3_ea
0000000000202b34 g     F .text	0000000000000070 psci_is_last_on_cpu
0000000000200784 g     F .text	0000000000000048 plat_crash_console_init
0000000000204e80 g     F .text	0000000000000000 irq_aarch32
000000000020064c g     F .text	0000000000000038 flush_dcache_range
0000000000203df0 g     F .text	000000000000000c timer_init
0000000000200c80 g     F .text	0000000000000054 bl31_early_platform_setup2
0000000000201764 g     F .text	00000000000000e8 gicv2_secure_ppi_sgi_setup_props
0000000000205760 g       .rodata	0000000000000000 __PMF_SVC_DESCS_END__
0000000000206170 g       .data	0000000000000000 __RELA_END__
0000000000206170 g       .data	0000000000000000 __RELA_START__
0000000000204980 g     F .text	0000000000000000 serror_sp_el0
0000000000203f34 g     F .text	00000000000003ec vprintf
0000000000200954 g     F .text	0000000000000004 report_unhandled_exception
0000000000202158 g     F .text	00000000000000d4 psci_cpu_on_finish
00000000002020f4 g     F .text	0000000000000008 psci_cpu_off
00000000002008a8 g     F .text	0000000000000004 plat_reset_handler
0000000000200560 g     F .text	0000000000000058 enable_mmu_direct_el3
0000000000205798 g       .rodata	0000000000000000 __pubsub_cm_entering_normal_world_end
0000000000203a24 g     F .text	0000000000000018 sp_console_setup
0000000000200684 g     F .text	0000000000000040 get_cpu_ops_ptr
0000000000200000 g     F .text	000000000000013c bl31_entrypoint
0000000000200fa4 g     F .text	0000000000000024 cm_get_context_by_index
0000000000203a58 g     F .text	000000000000001c sp_disable_secondary_cpus
0000000000200ff8 g     F .text	000000000000002c cm_init_my_context
0000000000204d80 g     F .text	0000000000000000 serror_aarch64
00000000002006c4 g     F .text	0000000000000014 init_cpu_data_ptr
0000000000200b38 g     F .text	000000000000001c sp_console_getc
0000000000206000 g       .rodata	0000000000000000 __RODATA_END__
00000000002005d4 g     F .text	0000000000000078 enter_lower_el_sync_ea
0000000000204320 g     F .text	000000000000000c xlat_arch_current_el
0000000000201650 g     F .text	0000000000000020 gicv2_cpuif_disable
0000000000000000 g       *ABS*	0000000000000000 __PERCPU_BAKERY_LOCK_SIZE__
0000000000203b7c g     F .text	000000000000000c sp_read_soc_id
0000000000201568 g     F .text	0000000000000014 gicd_read_icfgr
00000000002026a0 g     F .text	00000000000000e0 psci_do_cpu_off
0000000000208f74 g     O .bss	0000000000000004 psci_caps
0000000000201ec0 g     F .text	0000000000000024 plat_get_ns_image_entrypoint
000000000020112c g     F .text	00000000000001a4 cm_setup_context
0000000000200000 g       .text	0000000000000000 __BL31_START__
0000000000204a80 g     F .text	0000000000000000 irq_sp_elx
0000000000209000 g       .bss	0000000000000000 __PMF_PERCPU_TIMESTAMP_END__
0000000000204900 g     F .text	0000000000000000 fiq_sp_el0
0000000000205000 g       .rodata	0000000000000000 __RODATA_START__
000000000020616e g       .data	0000000000000000 __DATA_END__
0000000000200308 g       .text	0000000000000000 asm_print_hex_bits
0000000000205760 g       .rodata	0000000000000000 __CPU_OPS_START__
0000000000203dfc g     F .text	0000000000000068 udelay
0000000000203d10 g     F .text	000000000000004c tcr_physical_addr_size_bits
00000000002006f8 g     F .text	0000000000000038 inv_dcache_range
000000000020616c g     O .data	0000000000000001 console_state
00000000002032cc g     F .text	000000000000015c psci_smc_handler
0000000000201468 g     F .text	0000000000000044 generic_delay_timer_init
0000000000202518 g     F .text	0000000000000188 psci_cpu_suspend_start
0000000000202adc g     F .text	0000000000000058 psci_init_req_local_pwr_states
0000000000205798 g       .rodata	0000000000000000 __pubsub_cm_entering_secure_world_end
00000000002014ac g     F .text	0000000000000020 generic_delay_timer_init_args
0000000000209000 g       .bss	0000000000000000 __BAKERY_LOCK_END__
00000000002003cc g     F .text	0000000000000010 cpu_get_rev_var
000000000020222c g     F .text	0000000000000160 psci_cpu_on_start
0000000000202994 g     F .text	000000000000003c psci_find_max_off_lvl
0000000000204340 g     F .text	00000000000000d8 xlat_desc
000000000020087c g     F .text	0000000000000014 plat_is_my_cpu_primary
0000000000201590 g     F .text	0000000000000040 gicd_set_icfgr
0000000000208f50 g     O .bss	0000000000000020 psci_non_cpu_pd_nodes
0000000000209020 g       .bss	0000000000000000 __BSS_END__
0000000000205798 g       .rodata	0000000000000000 __CPU_OPS_END__
0000000000202780 g     F .text	0000000000000004 psci_do_pwrdown_sequence
0000000000200850 g     F .text	0000000000000008 plat_get_my_entrypoint
000000000020110c g     F .text	0000000000000020 cm_set_next_eret_context
0000000000205798 g       .rodata	0000000000000000 __pubsub_cm_entering_secure_world_start
00000000002020fc g     F .text	000000000000005c psci_cpu_on
0000000000200e80 g     F .text	0000000000000088 bl31_prepare_next_image_entry
0000000000208f70 g     O .bss	0000000000000004 psci_plat_core_count
000000000020292c g     F .text	0000000000000068 psci_features
0000000000205798 g       .rodata	0000000000000000 __GOT_END__
0000000000201b14 g     F .text	0000000000000078 memset
0000000000205760 g       .rodata	0000000000000000 __PARSER_LIB_DESCS_END__
0000000000209000 g       .bss	0000000000000000 __BAKERY_LOCK_START__
0000000000202a4c g     F .text	0000000000000090 psci_get_target_local_pwr_states
0000000000205798 g       .rodata	0000000000000000 __pubsub_cm_exited_normal_world_end
00000000002005b8 g     F .text	000000000000001c enter_lower_el_async_ea
0000000000208bc8 g     O .bss	0000000000000008 psci_plat_pm_ops
0000000000201ef0  w    F .text	0000000000000008 plat_get_soc_revision
0000000000200f08 g     F .text	0000000000000014 bl31_setup
0000000000205798 g       .rodata	0000000000000000 __pubsub_psci_suspend_pwrdown_start_start
0000000000205798 g       .rodata	0000000000000000 __GOT_START__
00000000002014cc g     F .text	000000000000000c get_arm_std_svc_args
0000000000205798 g       .rodata	0000000000000000 __pubsub_cm_entering_normal_world_start
0000000000000000 g       *ABS*	0000000000000000 __PERCPU_TIMESTAMP_SIZE__
0000000000205000 g       .text	0000000000000000 __TEXT_END__
0000000000202bec g     F .text	000000000000005c psci_mem_protect
0000000000205760 g       .rodata	0000000000000000 __FCONF_POPULATOR_END__
00000000002014d8 g     F .text	0000000000000024 get_interrupt_type_handler
0000000000201ee4 g     F .text	000000000000000c plat_get_power_domain_tree_desc
000000000020184c g     F .text	00000000000000ac gicv2_secure_spis_configure_props
000000000020162c g     F .text	0000000000000010 gicd_write_ipriorityr
0000000000202d04 g     F .text	0000000000000058 psci_node_hw_state
00000000002006d8 g     F .text	0000000000000020 init_cpu_ops
00000000002012d0 g     F .text	0000000000000054 console_flush
0000000000204b00 g     F .text	0000000000000000 fiq_sp_elx
0000000000204c00 g     F .text	0000000000000000 sync_exception_aarch64
0000000000204d00 g     F .text	0000000000000000 fiq_aarch64
000000000020157c g     F .text	0000000000000014 gicd_read_igroupr
0000000000200b88 g     F .text	0000000000000008 spin_unlock
0000000000208180 g       .bss	0000000000000000 __BSS_START__
0000000000201c0c g     F .text	0000000000000230 mmap_add_region_ctx
0000000000205760 g       .rodata	0000000000000000 __PMF_SVC_DESCS_START__
00000000002007cc g     F .text	0000000000000084 plat_crash_console_putc
0000000000208180 g     O .bss	0000000000000100 percpu_data
0000000000200b68 g     F .text	0000000000000020 spin_lock
0000000000201324 g     F .text	000000000000002c console_is_registered
0000000000202e8c g     F .text	0000000000000014 psci_query_sys_suspend_pwrstate
00000000002039ac g     F .text	0000000000000078 sp_configure_mmu_el3
0000000000200b54 g     F .text	0000000000000014 sp_console_putc
0000000000203d5c g     F .text	0000000000000094 tf_log
0000000000205798 g       .rodata	0000000000000000 __pubsub_psci_cpu_on_finish_start
0000000000205760 g       .rodata	0000000000000000 __FCONF_POPULATOR_START__
00000000002014fc g     F .text	0000000000000030 get_scr_el3_from_routing_model
0000000000212000 g       xlat_table	0000000000000000 __RW_END__
0000000000200df4 g     F .text	000000000000008c bl31_platform_setup
0000000000206180 g       stacks	0000000000000000 __STACKS_START__
0000000000202784 g     F .text	00000000000001a8 psci_do_state_coordination
00000000002034bc g     F .text	00000000000000a4 psci_system_reset2
0000000000201420 g     F .text	0000000000000048 enable_mmu_el3
0000000000204f80 g     F .text	0000000000000000 serror_aarch32
0000000000200874  w    F .text	0000000000000004 plat_handle_double_fault
0000000000209000 g       .bss	0000000000000000 __PMF_TIMESTAMP_END__
00000000002019d0 g     F .text	00000000000000e4 init_xlat_tables_ctx
0000000000205798 g       .rodata	0000000000000000 __pubsub_psci_suspend_pwrdown_finish_start
0000000000200890 g     F .text	0000000000000010 plat_my_core_pos
00000000002016e8 g     F .text	000000000000001c gicv2_driver_init
0000000000203800 g     F .text	0000000000000130 runtime_svc_init
000000000020171c g     F .text	0000000000000048 gicv2_pcpu_distif_init
0000000000204c80 g     F .text	0000000000000000 irq_aarch64
0000000000202cc4 g     F .text	0000000000000018 psci_migrate_info_type
0000000000201ef8  w    F .text	0000000000000008 plat_get_soc_version
0000000000202ba4 g     F .text	0000000000000048 psci_mem_chk_range
00000000002003e4  w      .text	0000000000000000 el3_panic
0000000000201538 g     F .text	0000000000000030 gicd_clr_igroupr
0000000000204418 g     F .text	0000000000000004 xlat_mmap_print
0000000000202014 g     F .text	000000000000006c psci_acquire_pwr_domain_locks
0000000000205798 g       .rodata	0000000000000000 __pubsub_psci_cpu_on_finish_end
0000000000200478 g     F .text	00000000000000a0 el1_sysregs_context_restore
0000000000208de8 g     O .bss	0000000000000008 console_list
0000000000202ef8 g     F .text	00000000000000a8 psci_set_pwr_domains_to_run
0000000000201618 g     F .text	0000000000000014 gicd_write_igroupr
0000000000200954 g       .text	0000000000000000 report_unhandled_interrupt
0000000000204f00 g     F .text	0000000000000000 fiq_aarch32
0000000000209000 g       .bss	0000000000000000 __PERCPU_BAKERY_LOCK_START__
0000000000200858  w    F .text	000000000000001c plat_get_my_stack
0000000000201bd8 g     F .text	0000000000000034 mmap_add_region
0000000000200000 g       .text	0000000000000000 __TEXT_START__
0000000000205760 g       .rodata	0000000000000000 __PARSER_LIB_DESCS_START__
0000000000208bd0 g     O .bss	0000000000000008 psci_spd_pm



Disassembly of section .text:

0000000000200000 <bl31_entrypoint>:
  200000:	aa0003f4 	mov	x20, x0
  200004:	aa0103f5 	mov	x21, x1
  200008:	aa0203f6 	mov	x22, x2
  20000c:	aa0303f7 	mov	x23, x3
  200010:	d2810600 	mov	x0, #0x830                 	// #2096
  200014:	f2a618a0 	movk	x0, #0x30c5, lsl #16
  200018:	d51e1000 	msr	sctlr_el3, x0
  20001c:	d5033fdf 	isb
  200020:	9400020c 	bl	200850 <plat_get_my_entrypoint>
  200024:	b4000040 	cbz	x0, 20002c <do_cold_boot>
  200028:	d61f0000 	br	x0

000000000020002c <do_cold_boot>:
  20002c:	10023ea0 	adr	x0, 204800 <sync_exception_sp_el0>
  200030:	d51ec000 	msr	vbar_el3, x0
  200034:	d5033fdf 	isb
  200038:	94000248 	bl	200958 <reset_handler>
  20003c:	d2820141 	mov	x1, #0x100a                	// #4106
  200040:	d53e1000 	mrs	x0, sctlr_el3
  200044:	aa010000 	orr	x0, x0, x1
  200048:	d51e1000 	msr	sctlr_el3, x0
  20004c:	d5033fdf 	isb
  200050:	9400019d 	bl	2006c4 <init_cpu_data_ptr>
  200054:	d2804700 	mov	x0, #0x238                 	// #568
  200058:	d51e1100 	msr	scr_el3, x0
  20005c:	d2900000 	mov	x0, #0x8000                	// #32768
  200060:	f2a01020 	movk	x0, #0x81, lsl #16
  200064:	d51e1320 	msr	mdcr_el3, x0
  200068:	d2801c00 	mov	x0, #0xe0                  	// #224
  20006c:	d51b9c00 	msr	pmcr_el0, x0
  200070:	d50344ff 	msr	daifclr, #0x4
  200074:	d2800000 	mov	x0, #0x0                   	// #0
  200078:	d51e1140 	msr	cptr_el3, x0
  20007c:	d5380400 	mrs	x0, id_aa64pfr0_el1
  200080:	d370cc00 	ubfx	x0, x0, #48, #4
  200084:	f100041f 	cmp	x0, #0x1
  200088:	54000061 	b.ne	200094 <do_cold_boot+0x68>  // b.any
  20008c:	d2a02000 	mov	x0, #0x1000000             	// #16777216
  200090:	d51b42a0 	msr	dit, x0
  200094:	940001fa 	bl	20087c <plat_is_my_cpu_primary>
  200098:	35000060 	cbnz	w0, 2000a4 <do_primary_cold_boot>
  20009c:	94000204 	bl	2008ac <plat_secondary_cold_boot_setup>
  2000a0:	940000d1 	bl	2003e4 <do_panic>

00000000002000a4 <do_primary_cold_boot>:
  2000a4:	9400021f 	bl	200920 <platform_mem_init>
  2000a8:	d0000020 	adrp	x0, 206000 <__RODATA_END__>
  2000ac:	91000000 	add	x0, x0, #0x0
  2000b0:	d0000081 	adrp	x1, 212000 <__BL31_END__>
  2000b4:	91000021 	add	x1, x1, #0x0
  2000b8:	cb000021 	sub	x1, x1, x0
  2000bc:	9400018f 	bl	2006f8 <inv_dcache_range>
  2000c0:	90000040 	adrp	x0, 208000 <__STACKS_START__+0x1e80>
  2000c4:	91060000 	add	x0, x0, #0x180
  2000c8:	b0000041 	adrp	x1, 209000 <__BAKERY_LOCK_END__>
  2000cc:	91008021 	add	x1, x1, #0x20
  2000d0:	cb000021 	sub	x1, x1, x0
  2000d4:	940002af 	bl	200b90 <zeromem>
  2000d8:	d50040bf 	msr	spsel, #0x0
  2000dc:	9400020d 	bl	200910 <plat_set_my_stack>
  2000e0:	d2800014 	mov	x20, #0x0                   	// #0
  2000e4:	d2800015 	mov	x21, #0x0                   	// #0
  2000e8:	d2800016 	mov	x22, #0x0                   	// #0
  2000ec:	d2800017 	mov	x23, #0x0                   	// #0
  2000f0:	aa1403e0 	mov	x0, x20
  2000f4:	aa1503e1 	mov	x1, x21
  2000f8:	aa1603e2 	mov	x2, x22
  2000fc:	aa1703e3 	mov	x3, x23
  200100:	94000382 	bl	200f08 <bl31_setup>
  200104:	940002f4 	bl	200cd4 <bl31_main>
  200108:	d0000020 	adrp	x0, 206000 <__RODATA_END__>
  20010c:	91000000 	add	x0, x0, #0x0
  200110:	d0000021 	adrp	x1, 206000 <__RODATA_END__>
  200114:	9105b821 	add	x1, x1, #0x16e
  200118:	cb000021 	sub	x1, x1, x0
  20011c:	94000095 	bl	200370 <clean_dcache_range>
  200120:	90000040 	adrp	x0, 208000 <__STACKS_START__+0x1e80>
  200124:	91060000 	add	x0, x0, #0x180
  200128:	b0000041 	adrp	x1, 209000 <__BAKERY_LOCK_END__>
  20012c:	91008021 	add	x1, x1, #0x20
  200130:	cb000021 	sub	x1, x1, x0
  200134:	9400008f 	bl	200370 <clean_dcache_range>
  200138:	140000f8 	b	200518 <el3_exit>

000000000020013c <bl31_warm_entrypoint>:
  20013c:	10023620 	adr	x0, 204800 <sync_exception_sp_el0>
  200140:	d51ec000 	msr	vbar_el3, x0
  200144:	d5033fdf 	isb
  200148:	94000204 	bl	200958 <reset_handler>
  20014c:	d2820141 	mov	x1, #0x100a                	// #4106
  200150:	d53e1000 	mrs	x0, sctlr_el3
  200154:	aa010000 	orr	x0, x0, x1
  200158:	d51e1000 	msr	sctlr_el3, x0
  20015c:	d5033fdf 	isb
  200160:	94000159 	bl	2006c4 <init_cpu_data_ptr>
  200164:	d2804700 	mov	x0, #0x238                 	// #568
  200168:	d51e1100 	msr	scr_el3, x0
  20016c:	d2900000 	mov	x0, #0x8000                	// #32768
  200170:	f2a01020 	movk	x0, #0x81, lsl #16
  200174:	d51e1320 	msr	mdcr_el3, x0
  200178:	d2801c00 	mov	x0, #0xe0                  	// #224
  20017c:	d51b9c00 	msr	pmcr_el0, x0
  200180:	d50344ff 	msr	daifclr, #0x4
  200184:	d2800000 	mov	x0, #0x0                   	// #0
  200188:	d51e1140 	msr	cptr_el3, x0
  20018c:	d5380400 	mrs	x0, id_aa64pfr0_el1
  200190:	d370cc00 	ubfx	x0, x0, #48, #4
  200194:	f100041f 	cmp	x0, #0x1
  200198:	54000061 	b.ne	2001a4 <bl31_warm_entrypoint+0x68>  // b.any
  20019c:	d2a02000 	mov	x0, #0x1000000             	// #16777216
  2001a0:	d51b42a0 	msr	dit, x0
  2001a4:	d50040bf 	msr	spsel, #0x0
  2001a8:	940001da 	bl	200910 <plat_set_my_stack>
  2001ac:	aa1f03e0 	mov	x0, xzr
  2001b0:	94000067 	bl	20034c <bl31_plat_enable_mmu>
  2001b4:	94000d58 	bl	203714 <psci_warmboot_entrypoint>
  2001b8:	140000d8 	b	200518 <el3_exit>

00000000002001bc <arm_arch_svc_smc_handler>:
  2001bc:	a9be7bfd 	stp	x29, x30, [sp, #-32]!
  2001c0:	2a0003e2 	mov	w2, w0
  2001c4:	aa0103e0 	mov	x0, x1
  2001c8:	910003fd 	mov	x29, sp
  2001cc:	f9000bf3 	str	x19, [sp, #16]
  2001d0:	52800041 	mov	w1, #0x2                   	// #2
  2001d4:	72b00001 	movk	w1, #0x8000, lsl #16
  2001d8:	aa0603f3 	mov	x19, x6
  2001dc:	6b01005f 	cmp	w2, w1
  2001e0:	54000740 	b.eq	2002c8 <arm_arch_svc_smc_handler+0x10c>  // b.none
  2001e4:	32010be1 	mov	w1, #0x80000003            	// #-2147483645
  2001e8:	6b01005f 	cmp	w2, w1
  2001ec:	540001a2 	b.cs	200220 <arm_arch_svc_smc_handler+0x64>  // b.hs, b.nlast
  2001f0:	52b00001 	mov	w1, #0x80000000            	// #-2147483648
  2001f4:	6b01005f 	cmp	w2, w1
  2001f8:	54000260 	b.eq	200244 <arm_arch_svc_smc_handler+0x88>  // b.none
  2001fc:	320107e1 	mov	w1, #0x80000001            	// #-2147483647
  200200:	6b01005f 	cmp	w2, w1
  200204:	54000280 	b.eq	200254 <arm_arch_svc_smc_handler+0x98>  // b.none
  200208:	2a0203e1 	mov	w1, w2
  20020c:	b0000020 	adrp	x0, 205000 <__TEXT_END__>
  200210:	91154800 	add	x0, x0, #0x552
  200214:	94000ed2 	bl	203d5c <tf_log>
  200218:	92800000 	mov	x0, #0xffffffffffffffff    	// #-1
  20021c:	1400000c 	b	20024c <arm_arch_svc_smc_handler+0x90>
  200220:	52900020 	mov	w0, #0x8001                	// #32769
  200224:	72afffe0 	movk	w0, #0x7fff, lsl #16
  200228:	0b000040 	add	w0, w2, w0
  20022c:	7100041f 	cmp	w0, #0x1
  200230:	54fffec8 	b.hi	200208 <arm_arch_svc_smc_handler+0x4c>  // b.pmore
  200234:	aa1303e0 	mov	x0, x19
  200238:	f9400bf3 	ldr	x19, [sp, #16]
  20023c:	a8c27bfd 	ldp	x29, x30, [sp], #32
  200240:	d65f03c0 	ret
  200244:	d2800040 	mov	x0, #0x2                   	// #2
  200248:	f2a00020 	movk	x0, #0x1, lsl #16
  20024c:	f9000260 	str	x0, [x19]
  200250:	17fffff9 	b	200234 <arm_arch_svc_smc_handler+0x78>
  200254:	32013fe1 	mov	w1, #0x80007fff            	// #-2147450881
  200258:	eb01001f 	cmp	x0, x1
  20025c:	54000320 	b.eq	2002c0 <arm_arch_svc_smc_handler+0x104>  // b.none
  200260:	540001e8 	b.hi	20029c <arm_arch_svc_smc_handler+0xe0>  // b.pmore
  200264:	320107e1 	mov	w1, #0x80000001            	// #-2147483647
  200268:	eb01001f 	cmp	x0, x1
  20026c:	540000c8 	b.hi	200284 <arm_arch_svc_smc_handler+0xc8>  // b.pmore
  200270:	b2407be1 	mov	x1, #0x7fffffff            	// #2147483647
  200274:	eb01001f 	cmp	x0, x1
  200278:	5a9f83e0 	csetm	w0, ls  // ls = plast
  20027c:	93407c00 	sxtw	x0, w0
  200280:	17fffff3 	b	20024c <arm_arch_svc_smc_handler+0x90>
  200284:	d2800041 	mov	x1, #0x2                   	// #2
  200288:	f2b00001 	movk	x1, #0x8000, lsl #16
  20028c:	eb01001f 	cmp	x0, x1
  200290:	54000140 	b.eq	2002b8 <arm_arch_svc_smc_handler+0xfc>  // b.none
  200294:	12800000 	mov	w0, #0xffffffff            	// #-1
  200298:	17fffff9 	b	20027c <arm_arch_svc_smc_handler+0xc0>
  20029c:	320183e1 	mov	w1, #0x80008000            	// #-2147450880
  2002a0:	eb01001f 	cmp	x0, x1
  2002a4:	54ffff81 	b.ne	200294 <arm_arch_svc_smc_handler+0xd8>  // b.any
  2002a8:	9400002a 	bl	200350 <check_wa_cve_2017_5715>
  2002ac:	7100001f 	cmp	w0, #0x0
  2002b0:	1a9f17e0 	cset	w0, eq  // eq = none
  2002b4:	17fffff2 	b	20027c <arm_arch_svc_smc_handler+0xc0>
  2002b8:	9400072b 	bl	201f64 <plat_is_smccc_feature_available>
  2002bc:	17fffff0 	b	20027c <arm_arch_svc_smc_handler+0xc0>
  2002c0:	12800020 	mov	w0, #0xfffffffe            	// #-2
  2002c4:	17ffffee 	b	20027c <arm_arch_svc_smc_handler+0xc0>
  2002c8:	f100041f 	cmp	x0, #0x1
  2002cc:	54000061 	b.ne	2002d8 <arm_arch_svc_smc_handler+0x11c>  // b.any
  2002d0:	94000708 	bl	201ef0 <plat_get_soc_revision>
  2002d4:	17ffffea 	b	20027c <arm_arch_svc_smc_handler+0xc0>
  2002d8:	b5000060 	cbnz	x0, 2002e4 <arm_arch_svc_smc_handler+0x128>
  2002dc:	94000707 	bl	201ef8 <plat_get_soc_version>
  2002e0:	17ffffe7 	b	20027c <arm_arch_svc_smc_handler+0xc0>
  2002e4:	12800040 	mov	w0, #0xfffffffd            	// #-3
  2002e8:	17ffffe5 	b	20027c <arm_arch_svc_smc_handler+0xc0>

00000000002002ec <_cpu_data_by_index>:
  2002ec:	d2800801 	mov	x1, #0x40                  	// #64
  2002f0:	9b017c00 	mul	x0, x0, x1
  2002f4:	90000041 	adrp	x1, 208000 <__STACKS_START__+0x1e80>
  2002f8:	91060021 	add	x1, x1, #0x180
  2002fc:	8b010000 	add	x0, x0, x1
  200300:	d65f03c0 	ret

0000000000200304 <asm_print_hex>:
  200304:	d2800805 	mov	x5, #0x40                  	// #64

0000000000200308 <asm_print_hex_bits>:
  200308:	aa1e03e3 	mov	x3, x30
  20030c:	d10010a5 	sub	x5, x5, #0x4
  200310:	9ac52480 	lsr	x0, x4, x5
  200314:	92400c00 	and	x0, x0, #0xf
  200318:	f100281f 	cmp	x0, #0xa
  20031c:	54000043 	b.cc	200324 <asm_print_hex_bits+0x1c>  // b.lo, b.ul, b.last
  200320:	91009c00 	add	x0, x0, #0x27
  200324:	9100c000 	add	x0, x0, #0x30
  200328:	94000129 	bl	2007cc <plat_crash_console_putc>
  20032c:	b5ffff05 	cbnz	x5, 20030c <asm_print_hex_bits+0x4>
  200330:	d65f0060 	ret	x3

0000000000200334 <asm_print_str>:
  200334:	aa1e03e3 	mov	x3, x30
  200338:	38401480 	ldrb	w0, [x4], #1
  20033c:	b4000060 	cbz	x0, 200348 <asm_print_str+0x14>
  200340:	94000123 	bl	2007cc <plat_crash_console_putc>
  200344:	17fffffd 	b	200338 <asm_print_str+0x4>
  200348:	d65f0060 	ret	x3

000000000020034c <bl31_plat_enable_mmu>:
  20034c:	14000085 	b	200560 <enable_mmu_direct_el3>

0000000000200350 <check_wa_cve_2017_5715>:
  200350:	d53ed040 	mrs	x0, tpidr_el3
  200354:	f9400800 	ldr	x0, [x0, #16]
  200358:	f9400800 	ldr	x0, [x0, #16]
  20035c:	f100001f 	cmp	x0, #0x0
  200360:	54000040 	b.eq	200368 <check_wa_cve_2017_5715+0x18>  // b.none
  200364:	d61f0000 	br	x0
  200368:	d2800000 	mov	x0, #0x0                   	// #0
  20036c:	d65f03c0 	ret

0000000000200370 <clean_dcache_range>:
  200370:	b40001a1 	cbz	x1, 2003a4 <exit_loop_cvac>
  200374:	d53b0023 	mrs	x3, ctr_el0
  200378:	d3504c63 	ubfx	x3, x3, #16, #4
  20037c:	d2800082 	mov	x2, #0x4                   	// #4
  200380:	9ac32042 	lsl	x2, x2, x3
  200384:	8b010001 	add	x1, x0, x1
  200388:	d1000443 	sub	x3, x2, #0x1
  20038c:	8a230000 	bic	x0, x0, x3

0000000000200390 <loop_cvac>:
  200390:	d50b7a20 	dc	cvac, x0
  200394:	8b020000 	add	x0, x0, x2
  200398:	eb01001f 	cmp	x0, x1
  20039c:	54ffffa3 	b.cc	200390 <loop_cvac>  // b.lo, b.ul, b.last
  2003a0:	d5033f9f 	dsb	sy

00000000002003a4 <exit_loop_cvac>:
  2003a4:	d65f03c0 	ret

00000000002003a8 <cortex_a55_core_pwr_dwn>:
  2003a8:	d538f2e0 	mrs	x0, s3_0_c15_c2_7
  2003ac:	b2400000 	orr	x0, x0, #0x1
  2003b0:	d518f2e0 	msr	s3_0_c15_c2_7, x0
  2003b4:	d5033fdf 	isb
  2003b8:	d65f03c0 	ret

00000000002003bc <cortex_a55_reset_func>:
  2003bc:	aa1e03f3 	mov	x19, x30
  2003c0:	94000003 	bl	2003cc <cpu_get_rev_var>
  2003c4:	aa0003f2 	mov	x18, x0
  2003c8:	d65f0260 	ret	x19

00000000002003cc <cpu_get_rev_var>:
  2003cc:	d5380001 	mrs	x1, midr_el1
  2003d0:	d3505c20 	ubfx	x0, x1, #16, #8
  2003d4:	b3400c20 	bfxil	x0, x1, #0, #4
  2003d8:	d65f03c0 	ret

00000000002003dc <delegate_async_ea>:
  2003dc:	1400000d 	b	200410 <ea_proceed>

00000000002003e0 <delegate_sync_ea>:
  2003e0:	1400000c 	b	200410 <ea_proceed>

00000000002003e4 <do_panic>:
  2003e4:	aa1e03e6 	mov	x6, x30
  2003e8:	940000e7 	bl	200784 <plat_crash_console_init>
  2003ec:	b40000e0 	cbz	x0, 200408 <_panic_handler>
  2003f0:	500298c4 	adr	x4, 20570a <panic_msg>
  2003f4:	97ffffd0 	bl	200334 <asm_print_str>
  2003f8:	aa0603e4 	mov	x4, x6
  2003fc:	d1001084 	sub	x4, x4, #0x4
  200400:	97ffffc1 	bl	200304 <asm_print_hex>
  200404:	940000cb 	bl	200730 <plat_crash_console_flush>

0000000000200408 <_panic_handler>:
  200408:	aa0603fe 	mov	x30, x6
  20040c:	14000125 	b	2008a0 <plat_panic_handler>

0000000000200410 <ea_proceed>:
  200410:	f94087e5 	ldr	x5, [sp, #264]
  200414:	b4000045 	cbz	x5, 20041c <ea_proceed+0xc>
  200418:	94000117 	bl	200874 <plat_handle_double_fault>
  20041c:	d53e4002 	mrs	x2, spsr_el3
  200420:	d53e4023 	mrs	x3, elr_el3
  200424:	a9118fe2 	stp	x2, x3, [sp, #280]
  200428:	d53e1104 	mrs	x4, scr_el3
  20042c:	d53e5205 	mrs	x5, esr_el3
  200430:	a91017e4 	stp	x4, x5, [sp, #256]
  200434:	aa1f03e2 	mov	x2, xzr
  200438:	910003e3 	mov	x3, sp
  20043c:	d3400084 	ubfx	x4, x4, #0, #1
  200440:	f9408be5 	ldr	x5, [sp, #272]
  200444:	d50040bf 	msr	spsel, #0x0
  200448:	910000bf 	mov	sp, x5
  20044c:	aa1e03fd 	mov	x29, x30
  200450:	9400067f 	bl	201e4c <plat_ea_handler>
  200454:	d50041bf 	msr	spsel, #0x1
  200458:	a9518be1 	ldp	x1, x2, [sp, #280]
  20045c:	d51e4001 	msr	spsr_el3, x1
  200460:	d51e4022 	msr	elr_el3, x2
  200464:	a95013e3 	ldp	x3, x4, [sp, #256]
  200468:	d51e1103 	msr	scr_el3, x3
  20046c:	d51e5204 	msr	esr_el3, x4
  200470:	f90087ff 	str	xzr, [sp, #264]
  200474:	d65f03a0 	ret	x29

0000000000200478 <el1_sysregs_context_restore>:
  200478:	a9402809 	ldp	x9, x10, [x0]
  20047c:	d5184009 	msr	spsr_el1, x9
  200480:	d518402a 	msr	elr_el1, x10
  200484:	a9422411 	ldp	x17, x9, [x0, #32]
  200488:	d5181051 	msr	cpacr_el1, x17
  20048c:	d51a0009 	msr	csselr_el1, x9
  200490:	a9432c0a 	ldp	x10, x11, [x0, #48]
  200494:	d51c410a 	msr	sp_el1, x10
  200498:	d518520b 	msr	esr_el1, x11
  20049c:	a944340c 	ldp	x12, x13, [x0, #64]
  2004a0:	d518200c 	msr	ttbr0_el1, x12
  2004a4:	d518202d 	msr	ttbr1_el1, x13
  2004a8:	a9453c0e 	ldp	x14, x15, [x0, #80]
  2004ac:	d518a20e 	msr	mair_el1, x14
  2004b0:	d518a30f 	msr	amair_el1, x15
  2004b4:	a9464410 	ldp	x16, x17, [x0, #96]
  2004b8:	d5181030 	msr	actlr_el1, x16
  2004bc:	d518d091 	msr	tpidr_el1, x17
  2004c0:	a9472809 	ldp	x9, x10, [x0, #112]
  2004c4:	d51bd049 	msr	tpidr_el0, x9
  2004c8:	d51bd06a 	msr	tpidrro_el0, x10
  2004cc:	a948380d 	ldp	x13, x14, [x0, #128]
  2004d0:	d518740d 	msr	par_el1, x13
  2004d4:	d518600e 	msr	far_el1, x14
  2004d8:	a949400f 	ldp	x15, x16, [x0, #144]
  2004dc:	d518510f 	msr	afsr0_el1, x15
  2004e0:	d5185130 	msr	afsr1_el1, x16
  2004e4:	a94a2411 	ldp	x17, x9, [x0, #160]
  2004e8:	d518d031 	msr	contextidr_el1, x17
  2004ec:	d518c009 	msr	vbar_el1, x9
  2004f0:	a94b300b 	ldp	x11, x12, [x0, #176]
  2004f4:	d51c432b 	msr	spsr_abt, x11
  2004f8:	d51c434c 	msr	spsr_und, x12
  2004fc:	a94c380d 	ldp	x13, x14, [x0, #192]
  200500:	d51c430d 	msr	spsr_irq, x13
  200504:	d51c436e 	msr	spsr_fiq, x14
  200508:	a94d400f 	ldp	x15, x16, [x0, #208]
  20050c:	d51c300f 	msr	dacr32_el2, x15
  200510:	d51c5030 	msr	ifsr32_el2, x16
  200514:	d65f03c0 	ret

0000000000200518 <el3_exit>:
  200518:	910003f1 	mov	x17, sp
  20051c:	d50041bf 	msr	spsel, #0x1
  200520:	f9008bf1 	str	x17, [sp, #272]
  200524:	f94083f2 	ldr	x18, [sp, #256]
  200528:	a951c7f0 	ldp	x16, x17, [sp, #280]
  20052c:	d51e1112 	msr	scr_el3, x18
  200530:	d51e4010 	msr	spsr_el3, x16
  200534:	d51e4031 	msr	elr_el3, x17
  200538:	d5033fdf 	isb
  20053c:	a95477fc 	ldp	x28, x29, [sp, #320]
  200540:	d518101c 	msr	sctlr_el1, x28
  200544:	d5033fdf 	isb
  200548:	d518205d 	msr	tcr_el1, x29
  20054c:	9400010b 	bl	200978 <restore_gp_pmcr_pauth_regs>
  200550:	f9407bfe 	ldr	x30, [sp, #240]
  200554:	d69f03e0 	eret
  200558:	d503379f 	dsb	nsh
  20055c:	d5033fdf 	isb

0000000000200560 <enable_mmu_direct_el3>:
  200560:	d50e871f 	tlbi	alle3
  200564:	aa0003e7 	mov	x7, x0
  200568:	90000040 	adrp	x0, 208000 <__STACKS_START__+0x1e80>
  20056c:	9137c000 	add	x0, x0, #0xdf0
  200570:	f9400001 	ldr	x1, [x0]
  200574:	d51ea201 	msr	mair_el3, x1
  200578:	f9400402 	ldr	x2, [x0, #8]
  20057c:	d51e2042 	msr	tcr_el3, x2
  200580:	f9400803 	ldr	x3, [x0, #16]
  200584:	d51e2003 	msr	ttbr0_el3, x3
  200588:	d5033b9f 	dsb	ish
  20058c:	d5033fdf 	isb
  200590:	d53e1004 	mrs	x4, sctlr_el3
  200594:	d28000a5 	mov	x5, #0x5                   	// #5
  200598:	f2a00105 	movk	x5, #0x8, lsl #16
  20059c:	aa050084 	orr	x4, x4, x5
  2005a0:	927df885 	and	x5, x4, #0xfffffffffffffffb
  2005a4:	f24000ff 	tst	x7, #0x1
  2005a8:	9a8410a4 	csel	x4, x5, x4, ne  // ne = any
  2005ac:	d51e1004 	msr	sctlr_el3, x4
  2005b0:	d5033fdf 	isb
  2005b4:	d65f03c0 	ret

00000000002005b8 <enter_lower_el_async_ea>:
  2005b8:	f9007bfe 	str	x30, [sp, #240]
  2005bc:	94000116 	bl	200a14 <save_gp_pmcr_pauth_regs>
  2005c0:	d2800000 	mov	x0, #0x0                   	// #0
  2005c4:	d53e5201 	mrs	x1, esr_el3
  2005c8:	97ffff85 	bl	2003dc <delegate_async_ea>
  2005cc:	d50040bf 	msr	spsel, #0x0
  2005d0:	17ffffd2 	b	200518 <el3_exit>

00000000002005d4 <enter_lower_el_sync_ea>:
  2005d4:	f9007bfe 	str	x30, [sp, #240]
  2005d8:	d53e521e 	mrs	x30, esr_el3
  2005dc:	d35a7fde 	ubfx	x30, x30, #26, #6
  2005e0:	f10083df 	cmp	x30, #0x20
  2005e4:	540001a0 	b.eq	200618 <enter_lower_el_sync_ea+0x44>  // b.none
  2005e8:	f10093df 	cmp	x30, #0x24
  2005ec:	54000160 	b.eq	200618 <enter_lower_el_sync_ea+0x44>  // b.none
  2005f0:	a90007e0 	stp	x0, x1, [sp]
  2005f4:	a9010fe2 	stp	x2, x3, [sp, #16]
  2005f8:	a90217e4 	stp	x4, x5, [sp, #32]
  2005fc:	94000022 	bl	200684 <get_cpu_ops_ptr>
  200600:	f9401000 	ldr	x0, [x0, #32]
  200604:	b40001a0 	cbz	x0, 200638 <enter_lower_el_sync_ea+0x64>
  200608:	d53e5201 	mrs	x1, esr_el3
  20060c:	d35a7c21 	ubfx	x1, x1, #26, #6
  200610:	d63f0000 	blr	x0
  200614:	14000009 	b	200638 <enter_lower_el_sync_ea+0x64>
  200618:	d53e521e 	mrs	x30, esr_el3
  20061c:	3648015e 	tbz	w30, #9, 200644 <enter_lower_el_sync_ea+0x70>
  200620:	940000fd 	bl	200a14 <save_gp_pmcr_pauth_regs>
  200624:	d2800020 	mov	x0, #0x1                   	// #1
  200628:	d53e5201 	mrs	x1, esr_el3
  20062c:	97ffff6d 	bl	2003e0 <delegate_sync_ea>
  200630:	d50040bf 	msr	spsel, #0x0
  200634:	17ffffb9 	b	200518 <el3_exit>
  200638:	a94007e0 	ldp	x0, x1, [sp]
  20063c:	a9410fe2 	ldp	x2, x3, [sp, #16]
  200640:	a94217e4 	ldp	x4, x5, [sp, #32]
  200644:	f9407bfe 	ldr	x30, [sp, #240]
  200648:	940000c3 	bl	200954 <report_unhandled_exception>

000000000020064c <flush_dcache_range>:
  20064c:	b40001a1 	cbz	x1, 200680 <exit_loop_civac>
  200650:	d53b0023 	mrs	x3, ctr_el0
  200654:	d3504c63 	ubfx	x3, x3, #16, #4
  200658:	d2800082 	mov	x2, #0x4                   	// #4
  20065c:	9ac32042 	lsl	x2, x2, x3
  200660:	8b010001 	add	x1, x0, x1
  200664:	d1000443 	sub	x3, x2, #0x1
  200668:	8a230000 	bic	x0, x0, x3

000000000020066c <loop_civac>:
  20066c:	d50b7e20 	dc	civac, x0
  200670:	8b020000 	add	x0, x0, x2
  200674:	eb01001f 	cmp	x0, x1
  200678:	54ffffa3 	b.cc	20066c <loop_civac>  // b.lo, b.ul, b.last
  20067c:	d5033f9f 	dsb	sy

0000000000200680 <exit_loop_civac>:
  200680:	d65f03c0 	ret

0000000000200684 <get_cpu_ops_ptr>:
  200684:	d5380002 	mrs	x2, midr_el1
  200688:	d29ffe03 	mov	x3, #0xfff0                	// #65520
  20068c:	f2bfe003 	movk	x3, #0xff00, lsl #16
  200690:	0a030042 	and	w2, w2, w3
  200694:	10028825 	adr	x5, 205798 <__CPU_OPS_END__>
  200698:	d2800000 	mov	x0, #0x0                   	// #0
  20069c:	10028624 	adr	x4, 205760 <__CPU_OPS_START__>
  2006a0:	eb05009f 	cmp	x4, x5
  2006a4:	540000e0 	b.eq	2006c0 <search_def_ptr>  // b.none
  2006a8:	f8438481 	ldr	x1, [x4], #56
  2006ac:	0a030021 	and	w1, w1, w3
  2006b0:	6b02003f 	cmp	w1, w2
  2006b4:	54ffff61 	b.ne	2006a0 <get_cpu_ops_ptr+0x1c>  // b.any
  2006b8:	d100e080 	sub	x0, x4, #0x38
  2006bc:	d65f03c0 	ret

00000000002006c0 <search_def_ptr>:
  2006c0:	d65f03c0 	ret

00000000002006c4 <init_cpu_data_ptr>:
  2006c4:	aa1e03ea 	mov	x10, x30
  2006c8:	94000072 	bl	200890 <plat_my_core_pos>
  2006cc:	97ffff08 	bl	2002ec <_cpu_data_by_index>
  2006d0:	d51ed040 	msr	tpidr_el3, x0
  2006d4:	d65f0140 	ret	x10

00000000002006d8 <init_cpu_ops>:
  2006d8:	d53ed046 	mrs	x6, tpidr_el3
  2006dc:	f94008c0 	ldr	x0, [x6, #16]
  2006e0:	b50000a0 	cbnz	x0, 2006f4 <init_cpu_ops+0x1c>
  2006e4:	aa1e03ea 	mov	x10, x30
  2006e8:	97ffffe7 	bl	200684 <get_cpu_ops_ptr>
  2006ec:	f8010cc0 	str	x0, [x6, #16]!
  2006f0:	aa0a03fe 	mov	x30, x10
  2006f4:	d65f03c0 	ret

00000000002006f8 <inv_dcache_range>:
  2006f8:	b40001a1 	cbz	x1, 20072c <exit_loop_ivac>
  2006fc:	d53b0023 	mrs	x3, ctr_el0
  200700:	d3504c63 	ubfx	x3, x3, #16, #4
  200704:	d2800082 	mov	x2, #0x4                   	// #4
  200708:	9ac32042 	lsl	x2, x2, x3
  20070c:	8b010001 	add	x1, x0, x1
  200710:	d1000443 	sub	x3, x2, #0x1
  200714:	8a230000 	bic	x0, x0, x3

0000000000200718 <loop_ivac>:
  200718:	d5087620 	dc	ivac, x0
  20071c:	8b020000 	add	x0, x0, x2
  200720:	eb01001f 	cmp	x0, x1
  200724:	54ffffa3 	b.cc	200718 <loop_ivac>  // b.lo, b.ul, b.last
  200728:	d5033f9f 	dsb	sy

000000000020072c <exit_loop_ivac>:
  20072c:	d65f03c0 	ret

0000000000200730 <plat_crash_console_flush>:
  200730:	d0000021 	adrp	x1, 206000 <__RODATA_END__>
  200734:	9104e021 	add	x1, x1, #0x138
  200738:	a9003c3e 	stp	x30, x15, [x1]
  20073c:	a9014430 	stp	x16, x17, [x1, #16]
  200740:	9000004f 	adrp	x15, 208000 <__STACKS_START__+0x1e80>
  200744:	f946f5ef 	ldr	x15, [x15, #3560]

0000000000200748 <flush_loop>:
  200748:	b400014f 	cbz	x15, 200770 <flush_done>
  20074c:	b94009e1 	ldr	w1, [x15, #8]
  200750:	721e003f 	tst	w1, #0x4
  200754:	540000a0 	b.eq	200768 <flush_continue>  // b.none
  200758:	f94011e2 	ldr	x2, [x15, #32]
  20075c:	b4000062 	cbz	x2, 200768 <flush_continue>
  200760:	aa0f03e0 	mov	x0, x15
  200764:	d63f0040 	blr	x2

0000000000200768 <flush_continue>:
  200768:	f94001ef 	ldr	x15, [x15]
  20076c:	17fffff7 	b	200748 <flush_loop>

0000000000200770 <flush_done>:
  200770:	d0000021 	adrp	x1, 206000 <__RODATA_END__>
  200774:	9104e021 	add	x1, x1, #0x138
  200778:	a9403c3e 	ldp	x30, x15, [x1]
  20077c:	a9414430 	ldp	x16, x17, [x1, #16]
  200780:	d65f03c0 	ret

0000000000200784 <plat_crash_console_init>:
  200784:	aa1e03e4 	mov	x4, x30
  200788:	d2800003 	mov	x3, #0x0                   	// #0
  20078c:	d53e1001 	mrs	x1, sctlr_el3
  200790:	f27e003f 	tst	x1, #0x4
  200794:	54000080 	b.eq	2007a4 <skip_spinlock>  // b.none
  200798:	d0000020 	adrp	x0, 206000 <__RODATA_END__>
  20079c:	9105a000 	add	x0, x0, #0x168
  2007a0:	940000f2 	bl	200b68 <spin_lock>

00000000002007a4 <skip_spinlock>:
  2007a4:	d0000021 	adrp	x1, 206000 <__RODATA_END__>
  2007a8:	9105b421 	add	x1, x1, #0x16d
  2007ac:	08dffc22 	ldarb	w2, [x1]
  2007b0:	7100005f 	cmp	w2, #0x0
  2007b4:	54000061 	b.ne	2007c0 <init_error>  // b.any
  2007b8:	d2800023 	mov	x3, #0x1                   	// #1
  2007bc:	089ffc23 	stlrb	w3, [x1]

00000000002007c0 <init_error>:
  2007c0:	940000f2 	bl	200b88 <spin_unlock>
  2007c4:	aa0303e0 	mov	x0, x3
  2007c8:	d65f0080 	ret	x4

00000000002007cc <plat_crash_console_putc>:
  2007cc:	d0000021 	adrp	x1, 206000 <__RODATA_END__>
  2007d0:	9104e021 	add	x1, x1, #0x138
  2007d4:	a9003c2e 	stp	x14, x15, [x1]
  2007d8:	a9014430 	stp	x16, x17, [x1, #16]
  2007dc:	f900103e 	str	x30, [x1, #32]
  2007e0:	2a0003ee 	mov	w14, w0
  2007e4:	9000004f 	adrp	x15, 208000 <__STACKS_START__+0x1e80>
  2007e8:	f946f5ef 	ldr	x15, [x15, #3560]

00000000002007ec <putc_loop>:
  2007ec:	b400026f 	cbz	x15, 200838 <putc_done>
  2007f0:	b94009e1 	ldr	w1, [x15, #8]
  2007f4:	721e003f 	tst	w1, #0x4
  2007f8:	540001c0 	b.eq	200830 <putc_continue>  // b.none
  2007fc:	f94009e2 	ldr	x2, [x15, #16]
  200800:	b4000182 	cbz	x2, 200830 <putc_continue>
  200804:	710029df 	cmp	w14, #0xa
  200808:	540000e1 	b.ne	200824 <putc>  // b.any
  20080c:	7218003f 	tst	w1, #0x100
  200810:	540000a0 	b.eq	200824 <putc>  // b.none
  200814:	aa0f03e1 	mov	x1, x15
  200818:	528001a0 	mov	w0, #0xd                   	// #13
  20081c:	d63f0040 	blr	x2
  200820:	f94009e2 	ldr	x2, [x15, #16]

0000000000200824 <putc>:
  200824:	aa0f03e1 	mov	x1, x15
  200828:	2a0e03e0 	mov	w0, w14
  20082c:	d63f0040 	blr	x2

0000000000200830 <putc_continue>:
  200830:	f94001ef 	ldr	x15, [x15]
  200834:	17ffffee 	b	2007ec <putc_loop>

0000000000200838 <putc_done>:
  200838:	d0000021 	adrp	x1, 206000 <__RODATA_END__>
  20083c:	9104e021 	add	x1, x1, #0x138
  200840:	a9403c2e 	ldp	x14, x15, [x1]
  200844:	a9414430 	ldp	x16, x17, [x1, #16]
  200848:	f940103e 	ldr	x30, [x1, #32]
  20084c:	d65f03c0 	ret

0000000000200850 <plat_get_my_entrypoint>:
  200850:	d2800000 	mov	x0, #0x0                   	// #0
  200854:	d65f03c0 	ret

0000000000200858 <plat_get_my_stack>:
  200858:	aa1e03ea 	mov	x10, x30
  20085c:	9400000d 	bl	200890 <plat_my_core_pos>
  200860:	d0000022 	adrp	x2, 206000 <__RODATA_END__>
  200864:	91260042 	add	x2, x2, #0x980
  200868:	d2810001 	mov	x1, #0x800                 	// #2048
  20086c:	9b010800 	madd	x0, x0, x1, x2
  200870:	d65f0140 	ret	x10

0000000000200874 <plat_handle_double_fault>:
  200874:	14000038 	b	200954 <report_unhandled_exception>

0000000000200878 <plat_handle_el3_ea>:
  200878:	14000037 	b	200954 <report_unhandled_exception>

000000000020087c <plat_is_my_cpu_primary>:
  20087c:	aa1e03e9 	mov	x9, x30
  200880:	94000004 	bl	200890 <plat_my_core_pos>
  200884:	f100001f 	cmp	x0, #0x0
  200888:	9a9f17e0 	cset	x0, eq  // eq = none
  20088c:	d65f0120 	ret	x9

0000000000200890 <plat_my_core_pos>:
  200890:	d53800a0 	mrs	x0, mpidr_el1
  200894:	d348fc00 	lsr	x0, x0, #8
  200898:	92401c00 	and	x0, x0, #0xff
  20089c:	d65f03c0 	ret

00000000002008a0 <plat_panic_handler>:
  2008a0:	d503207f 	wfi
  2008a4:	17ffffff 	b	2008a0 <plat_panic_handler>

00000000002008a8 <plat_reset_handler>:
  2008a8:	d65f03c0 	ret

00000000002008ac <plat_secondary_cold_boot_setup>:
  2008ac:	97fffff9 	bl	200890 <plat_my_core_pos>
  2008b0:	b2407fe1 	mov	x1, #0xffffffff            	// #4294967295
  2008b4:	d2800002 	mov	x2, #0x0                   	// #0
  2008b8:	d2800003 	mov	x3, #0x0                   	// #0
  2008bc:	d2800004 	mov	x4, #0x0                   	// #0
  2008c0:	18000202 	ldr	w2, 200900 <poll_hold_entry+0x30>
  2008c4:	cb000c42 	sub	x2, x2, x0, lsl #3
  2008c8:	b9000041 	str	w1, [x2]
  2008cc:	d5033f9f 	dsb	sy

00000000002008d0 <poll_hold_entry>:
  2008d0:	b9400043 	ldr	w3, [x2]
  2008d4:	6b01007f 	cmp	w3, w1
  2008d8:	54000100 	b.eq	2008f8 <poll_hold_entry+0x28>  // b.none
  2008dc:	18000144 	ldr	w4, 200904 <poll_hold_entry+0x34>
  2008e0:	d2800015 	mov	x21, #0x0                   	// #0
  2008e4:	18000135 	ldr	w21, 200908 <poll_hold_entry+0x38>
  2008e8:	18000136 	ldr	w22, 20090c <poll_hold_entry+0x3c>
  2008ec:	b90002b6 	str	w22, [x21]
  2008f0:	b90002a3 	str	w3, [x21]
  2008f4:	d61f0080 	br	x4
  2008f8:	d503205f 	wfe
  2008fc:	17fffff5 	b	2008d0 <poll_hold_entry>
  200900:	fa23fff0 	.word	0xfa23fff0
  200904:	0020013c 	.word	0x0020013c
  200908:	f8000000 	.word	0xf8000000
  20090c:	12345001 	.word	0x12345001

0000000000200910 <plat_set_my_stack>:
  200910:	aa1e03e9 	mov	x9, x30
  200914:	97ffffd1 	bl	200858 <plat_get_my_stack>
  200918:	9100001f 	mov	sp, x0
  20091c:	d65f0120 	ret	x9

0000000000200920 <platform_mem_init>:
  200920:	d65f03c0 	ret

0000000000200924 <prepare_cpu_pwr_dwn>:
  200924:	d2800022 	mov	x2, #0x1                   	// #1
  200928:	eb02001f 	cmp	x0, x2
  20092c:	9a808042 	csel	x2, x2, x0, hi  // hi = pmore
  200930:	d53ed041 	mrs	x1, tpidr_el3
  200934:	f9400820 	ldr	x0, [x1, #16]
  200938:	d2800501 	mov	x1, #0x28                  	// #40
  20093c:	8b020c21 	add	x1, x1, x2, lsl #3
  200940:	f8616801 	ldr	x1, [x0, x1]
  200944:	d61f0020 	br	x1

0000000000200948 <psci_power_down_wfi>:
  200948:	d5033f9f 	dsb	sy
  20094c:	d503207f 	wfi
  200950:	97ffffd4 	bl	2008a0 <plat_panic_handler>

0000000000200954 <report_unhandled_exception>:
  200954:	97ffffd3 	bl	2008a0 <plat_panic_handler>

0000000000200958 <reset_handler>:
  200958:	aa1e03f3 	mov	x19, x30
  20095c:	97ffffd3 	bl	2008a8 <plat_reset_handler>
  200960:	97ffff49 	bl	200684 <get_cpu_ops_ptr>
  200964:	f9400402 	ldr	x2, [x0, #8]
  200968:	aa1303fe 	mov	x30, x19
  20096c:	b4000042 	cbz	x2, 200974 <reset_handler+0x1c>
  200970:	d61f0040 	br	x2
  200974:	d65f03c0 	ret

0000000000200978 <restore_gp_pmcr_pauth_regs>:
  200978:	d53e1100 	mrs	x0, scr_el3
  20097c:	f240001f 	tst	x0, #0x1
  200980:	540000c0 	b.eq	200998 <restore_gp_pmcr_pauth_regs+0x20>  // b.none
  200984:	d53e1320 	mrs	x0, mdcr_el3
  200988:	f269001f 	tst	x0, #0x800000
  20098c:	54000061 	b.ne	200998 <restore_gp_pmcr_pauth_regs+0x20>  // b.any
  200990:	f94097e0 	ldr	x0, [sp, #296]
  200994:	d51b9c00 	msr	pmcr_el0, x0
  200998:	a94007e0 	ldp	x0, x1, [sp]
  20099c:	a9410fe2 	ldp	x2, x3, [sp, #16]
  2009a0:	a94217e4 	ldp	x4, x5, [sp, #32]
  2009a4:	a9431fe6 	ldp	x6, x7, [sp, #48]
  2009a8:	a94427e8 	ldp	x8, x9, [sp, #64]
  2009ac:	a9452fea 	ldp	x10, x11, [sp, #80]
  2009b0:	a94637ec 	ldp	x12, x13, [sp, #96]
  2009b4:	a9473fee 	ldp	x14, x15, [sp, #112]
  2009b8:	a94847f0 	ldp	x16, x17, [sp, #128]
  2009bc:	a9494ff2 	ldp	x18, x19, [sp, #144]
  2009c0:	a94a57f4 	ldp	x20, x21, [sp, #160]
  2009c4:	a94b5ff6 	ldp	x22, x23, [sp, #176]
  2009c8:	a94c67f8 	ldp	x24, x25, [sp, #192]
  2009cc:	a94d6ffa 	ldp	x26, x27, [sp, #208]
  2009d0:	f9407ffc 	ldr	x28, [sp, #248]
  2009d4:	d518411c 	msr	sp_el0, x28
  2009d8:	a94e77fc 	ldp	x28, x29, [sp, #224]
  2009dc:	d65f03c0 	ret

00000000002009e0 <save_and_update_ptw_el1_sys_regs>:
  2009e0:	d538101d 	mrs	x29, sctlr_el1
  2009e4:	f900a3fd 	str	x29, [sp, #320]
  2009e8:	d538205d 	mrs	x29, tcr_el1
  2009ec:	f900a7fd 	str	x29, [sp, #328]
  2009f0:	b27903bd 	orr	x29, x29, #0x80
  2009f4:	b26903bd 	orr	x29, x29, #0x800000
  2009f8:	d518205d 	msr	tcr_el1, x29
  2009fc:	d5033fdf 	isb
  200a00:	d538101d 	mrs	x29, sctlr_el1
  200a04:	b24003bd 	orr	x29, x29, #0x1
  200a08:	d518101d 	msr	sctlr_el1, x29
  200a0c:	d5033fdf 	isb
  200a10:	d65f03c0 	ret

0000000000200a14 <save_gp_pmcr_pauth_regs>:
  200a14:	a90007e0 	stp	x0, x1, [sp]
  200a18:	a9010fe2 	stp	x2, x3, [sp, #16]
  200a1c:	a90217e4 	stp	x4, x5, [sp, #32]
  200a20:	a9031fe6 	stp	x6, x7, [sp, #48]
  200a24:	a90427e8 	stp	x8, x9, [sp, #64]
  200a28:	a9052fea 	stp	x10, x11, [sp, #80]
  200a2c:	a90637ec 	stp	x12, x13, [sp, #96]
  200a30:	a9073fee 	stp	x14, x15, [sp, #112]
  200a34:	a90847f0 	stp	x16, x17, [sp, #128]
  200a38:	a9094ff2 	stp	x18, x19, [sp, #144]
  200a3c:	a90a57f4 	stp	x20, x21, [sp, #160]
  200a40:	a90b5ff6 	stp	x22, x23, [sp, #176]
  200a44:	a90c67f8 	stp	x24, x25, [sp, #192]
  200a48:	a90d6ffa 	stp	x26, x27, [sp, #208]
  200a4c:	a90e77fc 	stp	x28, x29, [sp, #224]
  200a50:	d5384112 	mrs	x18, sp_el0
  200a54:	f9007ff2 	str	x18, [sp, #248]
  200a58:	d53e1329 	mrs	x9, mdcr_el3
  200a5c:	f269013f 	tst	x9, #0x800000
  200a60:	54000121 	b.ne	200a84 <save_gp_pmcr_pauth_regs+0x70>  // b.any
  200a64:	d53b9c09 	mrs	x9, pmcr_el0
  200a68:	d53e110a 	mrs	x10, scr_el3
  200a6c:	f240015f 	tst	x10, #0x1
  200a70:	54000040 	b.eq	200a78 <save_gp_pmcr_pauth_regs+0x64>  // b.none
  200a74:	f90097e9 	str	x9, [sp, #296]
  200a78:	b27b0129 	orr	x9, x9, #0x20
  200a7c:	d51b9c09 	msr	pmcr_el0, x9
  200a80:	d5033fdf 	isb
  200a84:	d65f03c0 	ret

0000000000200a88 <smc_handler>:
  200a88:	37f00380 	tbnz	w0, #30, 200af8 <smc_prohibited>

0000000000200a8c <smc_handler64>:
  200a8c:	97ffffe2 	bl	200a14 <save_gp_pmcr_pauth_regs>
  200a90:	aa1f03e5 	mov	x5, xzr
  200a94:	910003e6 	mov	x6, sp
  200a98:	f94088cc 	ldr	x12, [x6, #272]
  200a9c:	d50040bf 	msr	spsel, #0x0
  200aa0:	d53e4010 	mrs	x16, spsr_el3
  200aa4:	d53e4031 	mrs	x17, elr_el3
  200aa8:	d53e1112 	mrs	x18, scr_el3
  200aac:	a911c4d0 	stp	x16, x17, [x6, #280]
  200ab0:	f90080d2 	str	x18, [x6, #256]
  200ab4:	b3400247 	bfxil	x7, x18, #0, #1
  200ab8:	9100019f 	mov	sp, x12
  200abc:	d3587410 	ubfx	x16, x0, #24, #6
  200ac0:	d35f7c0f 	ubfx	x15, x0, #31, #1
  200ac4:	aa0f1a10 	orr	x16, x16, x15, lsl #6
  200ac8:	9000004e 	adrp	x14, 208000 <__STACKS_START__+0x1e80>
  200acc:	913de1ce 	add	x14, x14, #0xf78
  200ad0:	387069cf 	ldrb	w15, [x14, x16]
  200ad4:	373800cf 	tbnz	w15, #7, 200aec <smc_unknown>
  200ad8:	1002630b 	adr	x11, 205738 <__RT_SVC_DESCS_START__+0x18>
  200adc:	531b69ea 	lsl	w10, w15, #5
  200ae0:	f86a496f 	ldr	x15, [x11, w10, uxtw]
  200ae4:	d63f01e0 	blr	x15
  200ae8:	17fffe8c 	b	200518 <el3_exit>

0000000000200aec <smc_unknown>:
  200aec:	92800000 	mov	x0, #0xffffffffffffffff    	// #-1
  200af0:	f90000c0 	str	x0, [x6]
  200af4:	17fffe89 	b	200518 <el3_exit>

0000000000200af8 <smc_prohibited>:
  200af8:	d5033fdf 	isb
  200afc:	a95477fc 	ldp	x28, x29, [sp, #320]
  200b00:	d518101c 	msr	sctlr_el1, x28
  200b04:	d5033fdf 	isb
  200b08:	d518205d 	msr	tcr_el1, x29
  200b0c:	a94e77fc 	ldp	x28, x29, [sp, #224]
  200b10:	f9407bfe 	ldr	x30, [sp, #240]
  200b14:	92800000 	mov	x0, #0xffffffffffffffff    	// #-1
  200b18:	d69f03e0 	eret
  200b1c:	d503379f 	dsb	nsh
  200b20:	d5033fdf 	isb

0000000000200b24 <sp_console_flush>:
  200b24:	f9401400 	ldr	x0, [x0, #40]
  200b28:	b9400401 	ldr	w1, [x0, #4]
  200b2c:	3637ffe1 	tbz	w1, #6, 200b28 <sp_console_flush+0x4>
  200b30:	52800000 	mov	w0, #0x0                   	// #0
  200b34:	d65f03c0 	ret

0000000000200b38 <sp_console_getc>:
  200b38:	f9401400 	ldr	x0, [x0, #40]
  200b3c:	b9400401 	ldr	w1, [x0, #4]
  200b40:	36080061 	tbz	w1, #1, 200b4c <sp_console_getc+0x14>
  200b44:	b9400000 	ldr	w0, [x0]
  200b48:	d65f03c0 	ret
  200b4c:	12800000 	mov	w0, #0xffffffff            	// #-1
  200b50:	d65f03c0 	ret

0000000000200b54 <sp_console_putc>:
  200b54:	f9401421 	ldr	x1, [x1, #40]
  200b58:	b9400422 	ldr	w2, [x1, #4]
  200b5c:	3607ffe2 	tbz	w2, #0, 200b58 <sp_console_putc+0x4>
  200b60:	b9000020 	str	w0, [x1]
  200b64:	d65f03c0 	ret

0000000000200b68 <spin_lock>:
  200b68:	52800022 	mov	w2, #0x1                   	// #1
  200b6c:	d50320bf 	sevl

0000000000200b70 <l1>:
  200b70:	d503205f 	wfe

0000000000200b74 <l2>:
  200b74:	885ffc01 	ldaxr	w1, [x0]
  200b78:	35ffffc1 	cbnz	w1, 200b70 <l1>
  200b7c:	88017c02 	stxr	w1, w2, [x0]
  200b80:	35ffffa1 	cbnz	w1, 200b74 <l2>
  200b84:	d65f03c0 	ret

0000000000200b88 <spin_unlock>:
  200b88:	889ffc1f 	stlr	wzr, [x0]
  200b8c:	d65f03c0 	ret

0000000000200b90 <zeromem>:
  200b90:	8b010002 	add	x2, x0, x1
  200b94:	14000030 	b	200c54 <zero_normalmem+0xbc>

0000000000200b98 <zero_normalmem>:
  200b98:	8b010002 	add	x2, x0, x1
  200b9c:	d53b00e3 	mrs	x3, dczid_el0
  200ba0:	d3400c63 	ubfx	x3, x3, #0, #4
  200ba4:	d2800085 	mov	x5, #0x4                   	// #4
  200ba8:	9ac320a3 	lsl	x3, x5, x3
  200bac:	eb03003f 	cmp	x1, x3
  200bb0:	54000523 	b.cc	200c54 <zero_normalmem+0xbc>  // b.lo, b.ul, b.last
  200bb4:	d1000461 	sub	x1, x3, #0x1
  200bb8:	ea01001f 	tst	x0, x1
  200bbc:	54000260 	b.eq	200c08 <zero_normalmem+0x70>  // b.none
  200bc0:	aa010004 	orr	x4, x0, x1
  200bc4:	91000484 	add	x4, x4, #0x1
  200bc8:	b4000464 	cbz	x4, 200c54 <zero_normalmem+0xbc>
  200bcc:	eb02009f 	cmp	x4, x2
  200bd0:	54000428 	b.hi	200c54 <zero_normalmem+0xbc>  // b.pmore
  200bd4:	f2400c1f 	tst	x0, #0xf
  200bd8:	540000e0 	b.eq	200bf4 <zero_normalmem+0x5c>  // b.none
  200bdc:	b2400c05 	orr	x5, x0, #0xf
  200be0:	910004a5 	add	x5, x5, #0x1
  200be4:	b4000385 	cbz	x5, 200c54 <zero_normalmem+0xbc>
  200be8:	3800141f 	strb	wzr, [x0], #1
  200bec:	eb05001f 	cmp	x0, x5
  200bf0:	54ffffc1 	b.ne	200be8 <zero_normalmem+0x50>  // b.any
  200bf4:	eb04001f 	cmp	x0, x4
  200bf8:	54000082 	b.cs	200c08 <zero_normalmem+0x70>  // b.hs, b.nlast
  200bfc:	a8817c1f 	stp	xzr, xzr, [x0], #16
  200c00:	eb04001f 	cmp	x0, x4
  200c04:	54ffffc3 	b.cc	200bfc <zero_normalmem+0x64>  // b.lo, b.ul, b.last
  200c08:	8a210044 	bic	x4, x2, x1
  200c0c:	eb04001f 	cmp	x0, x4
  200c10:	540000a2 	b.cs	200c24 <zero_normalmem+0x8c>  // b.hs, b.nlast
  200c14:	d50b7420 	dc	zva, x0
  200c18:	8b030000 	add	x0, x0, x3
  200c1c:	eb04001f 	cmp	x0, x4
  200c20:	54ffffa3 	b.cc	200c14 <zero_normalmem+0x7c>  // b.lo, b.ul, b.last
  200c24:	927cec44 	and	x4, x2, #0xfffffffffffffff0
  200c28:	eb04001f 	cmp	x0, x4
  200c2c:	54000082 	b.cs	200c3c <zero_normalmem+0xa4>  // b.hs, b.nlast
  200c30:	a8817c1f 	stp	xzr, xzr, [x0], #16
  200c34:	eb04001f 	cmp	x0, x4
  200c38:	54ffffc3 	b.cc	200c30 <zero_normalmem+0x98>  // b.lo, b.ul, b.last
  200c3c:	eb02001f 	cmp	x0, x2
  200c40:	54000080 	b.eq	200c50 <zero_normalmem+0xb8>  // b.none
  200c44:	3800141f 	strb	wzr, [x0], #1
  200c48:	eb02001f 	cmp	x0, x2
  200c4c:	54ffffc1 	b.ne	200c44 <zero_normalmem+0xac>  // b.any
  200c50:	d65f03c0 	ret
  200c54:	f2400c1f 	tst	x0, #0xf
  200c58:	54fffe60 	b.eq	200c24 <zero_normalmem+0x8c>  // b.none
  200c5c:	b2400c04 	orr	x4, x0, #0xf
  200c60:	91000484 	add	x4, x4, #0x1
  200c64:	b4fffec4 	cbz	x4, 200c3c <zero_normalmem+0xa4>
  200c68:	eb02009f 	cmp	x4, x2
  200c6c:	54fffe82 	b.cs	200c3c <zero_normalmem+0xa4>  // b.hs, b.nlast
  200c70:	3800141f 	strb	wzr, [x0], #1
  200c74:	eb04001f 	cmp	x0, x4
  200c78:	54ffffc1 	b.ne	200c70 <zero_normalmem+0xd8>  // b.any
  200c7c:	17ffffea 	b	200c24 <zero_normalmem+0x8c>

0000000000200c80 <bl31_early_platform_setup2>:
  200c80:	a9bf7bfd 	stp	x29, x30, [sp, #-16]!
  200c84:	910003fd 	mov	x29, sp
  200c88:	94000b67 	bl	203a24 <sp_console_setup>
  200c8c:	90000040 	adrp	x0, 208000 <__STACKS_START__+0x1e80>
  200c90:	d2802021 	mov	x1, #0x101                 	// #257
  200c94:	9130c002 	add	x2, x0, #0xc30
  200c98:	f2a00b01 	movk	x1, #0x58, lsl #16
  200c9c:	f9061801 	str	x1, [x0, #3120]
  200ca0:	52807920 	mov	w0, #0x3c9                 	// #969
  200ca4:	b9001040 	str	w0, [x2, #16]
  200ca8:	94000486 	bl	201ec0 <plat_get_ns_image_entrypoint>
  200cac:	f9000440 	str	x0, [x2, #8]
  200cb0:	d2a00800 	mov	x0, #0x400000              	// #4194304
  200cb4:	f9000c40 	str	x0, [x2, #24]
  200cb8:	b9400440 	ldr	w0, [x2, #4]
  200cbc:	a9027c5f 	stp	xzr, xzr, [x2, #32]
  200cc0:	32000000 	orr	w0, w0, #0x1
  200cc4:	b9000440 	str	w0, [x2, #4]
  200cc8:	f900185f 	str	xzr, [x2, #48]
  200ccc:	a8c17bfd 	ldp	x29, x30, [sp], #16
  200cd0:	d65f03c0 	ret

0000000000200cd4 <bl31_main>:
  200cd4:	a9be7bfd 	stp	x29, x30, [sp, #-32]!
  200cd8:	b0000021 	adrp	x1, 205000 <__TEXT_END__>
  200cdc:	91070021 	add	x1, x1, #0x1c0
  200ce0:	910003fd 	mov	x29, sp
  200ce4:	f9000bf3 	str	x19, [sp, #16]
  200ce8:	b0000033 	adrp	x19, 205000 <__TEXT_END__>
  200cec:	91097e73 	add	x19, x19, #0x25f
  200cf0:	aa1303e0 	mov	x0, x19
  200cf4:	94000c1a 	bl	203d5c <tf_log>
  200cf8:	aa1303e0 	mov	x0, x19
  200cfc:	b0000021 	adrp	x1, 205000 <__TEXT_END__>
  200d00:	91068821 	add	x1, x1, #0x1a2
  200d04:	94000c16 	bl	203d5c <tf_log>
  200d08:	90000053 	adrp	x19, 208000 <__STACKS_START__+0x1e80>
  200d0c:	9400003a 	bl	200df4 <bl31_platform_setup>
  200d10:	940000ae 	bl	200fc8 <cm_init>
  200d14:	b0000020 	adrp	x0, 205000 <__TEXT_END__>
  200d18:	9109a800 	add	x0, x0, #0x26a
  200d1c:	94000c10 	bl	203d5c <tf_log>
  200d20:	94000ab8 	bl	203800 <runtime_svc_init>
  200d24:	f9458260 	ldr	x0, [x19, #2816]
  200d28:	b4000140 	cbz	x0, 200d50 <bl31_main+0x7c>
  200d2c:	b0000020 	adrp	x0, 205000 <__TEXT_END__>
  200d30:	910a4000 	add	x0, x0, #0x290
  200d34:	94000c0a 	bl	203d5c <tf_log>
  200d38:	f9458260 	ldr	x0, [x19, #2816]
  200d3c:	d63f0000 	blr	x0
  200d40:	35000080 	cbnz	w0, 200d50 <bl31_main+0x7c>
  200d44:	b0000020 	adrp	x0, 205000 <__TEXT_END__>
  200d48:	910aa800 	add	x0, x0, #0x2aa
  200d4c:	94000c04 	bl	203d5c <tf_log>
  200d50:	9400004c 	bl	200e80 <bl31_prepare_next_image_entry>
  200d54:	9400015f 	bl	2012d0 <console_flush>
  200d58:	f9400bf3 	ldr	x19, [sp, #16]
  200d5c:	a8c27bfd 	ldp	x29, x30, [sp], #32
  200d60:	14000011 	b	200da4 <bl31_plat_runtime_setup>

0000000000200d64 <bl31_plat_arch_setup>:
  200d64:	52800000 	mov	w0, #0x0                   	// #0
  200d68:	14000b11 	b	2039ac <sp_configure_mmu_el3>

0000000000200d6c <bl31_plat_get_next_image_ep_info>:
  200d6c:	7100041f 	cmp	w0, #0x1
  200d70:	54000100 	b.eq	200d90 <bl31_plat_get_next_image_ep_info+0x24>  // b.none
  200d74:	35000140 	cbnz	w0, 200d9c <bl31_plat_get_next_image_ep_info+0x30>
  200d78:	90000040 	adrp	x0, 208000 <__STACKS_START__+0x1e80>
  200d7c:	912f6000 	add	x0, x0, #0xbd8
  200d80:	f9400401 	ldr	x1, [x0, #8]
  200d84:	f100003f 	cmp	x1, #0x0
  200d88:	9a9f1000 	csel	x0, x0, xzr, ne  // ne = any
  200d8c:	d65f03c0 	ret
  200d90:	90000040 	adrp	x0, 208000 <__STACKS_START__+0x1e80>
  200d94:	9130c000 	add	x0, x0, #0xc30
  200d98:	17fffffd 	b	200d8c <bl31_plat_get_next_image_ep_info+0x20>
  200d9c:	d2800000 	mov	x0, #0x0                   	// #0
  200da0:	17fffffb 	b	200d8c <bl31_plat_get_next_image_ep_info+0x20>

0000000000200da4 <bl31_plat_runtime_setup>:
  200da4:	a9be7bfd 	stp	x29, x30, [sp, #-32]!
  200da8:	910003fd 	mov	x29, sp
  200dac:	a90153f3 	stp	x19, x20, [sp, #16]
  200db0:	52800033 	mov	w19, #0x1                   	// #1
  200db4:	52800054 	mov	w20, #0x2                   	// #2
  200db8:	7100127f 	cmp	w19, #0x4
  200dbc:	54000081 	b.ne	200dcc <bl31_plat_runtime_setup+0x28>  // b.any
  200dc0:	a94153f3 	ldp	x19, x20, [sp, #16]
  200dc4:	a8c27bfd 	ldp	x29, x30, [sp], #32
  200dc8:	d65f03c0 	ret
  200dcc:	2a1303e0 	mov	w0, w19
  200dd0:	97fffd47 	bl	2002ec <_cpu_data_by_index>
  200dd4:	b9001814 	str	w20, [x0, #24]
  200dd8:	2a1303e0 	mov	w0, w19
  200ddc:	11000673 	add	w19, w19, #0x1
  200de0:	97fffd43 	bl	2002ec <_cpu_data_by_index>
  200de4:	91006000 	add	x0, x0, #0x18
  200de8:	d2800081 	mov	x1, #0x4                   	// #4
  200dec:	97fffe18 	bl	20064c <flush_dcache_range>
  200df0:	17fffff2 	b	200db8 <bl31_plat_runtime_setup+0x14>

0000000000200df4 <bl31_platform_setup>:
  200df4:	a9bf7bfd 	stp	x29, x30, [sp, #-16]!
  200df8:	910003fd 	mov	x29, sp
  200dfc:	94000b60 	bl	203b7c <sp_read_soc_id>
  200e00:	12003c02 	and	w2, w0, #0xffff
  200e04:	b0000021 	adrp	x1, 205000 <__TEXT_END__>
  200e08:	b0000020 	adrp	x0, 205000 <__TEXT_END__>
  200e0c:	9111cc21 	add	x1, x1, #0x473
  200e10:	9111e000 	add	x0, x0, #0x478
  200e14:	94000bd2 	bl	203d5c <tf_log>
  200e18:	94000194 	bl	201468 <generic_delay_timer_init>
  200e1c:	b0000020 	adrp	x0, 205000 <__TEXT_END__>
  200e20:	9100a000 	add	x0, x0, #0x28
  200e24:	94000231 	bl	2016e8 <gicv2_driver_init>
  200e28:	9400021a 	bl	201690 <gicv2_distif_init>
  200e2c:	9400023c 	bl	20171c <gicv2_pcpu_distif_init>
  200e30:	94000210 	bl	201670 <gicv2_cpuif_enable>
  200e34:	d2821000 	mov	x0, #0x1080                	// #4224
  200e38:	129fe001 	mov	w1, #0xffff00ff            	// #-65281
  200e3c:	f2bf4000 	movk	x0, #0xfa00, lsl #16
  200e40:	b9000001 	str	w1, [x0]
  200e44:	52801001 	mov	w1, #0x80                  	// #128
  200e48:	b90f8401 	str	w1, [x0, #3972]
  200e4c:	d2840000 	mov	x0, #0x2000                	// #8192
  200e50:	f2bf4000 	movk	x0, #0xfa00, lsl #16
  200e54:	52800161 	mov	w1, #0xb                   	// #11
  200e58:	b9000001 	str	w1, [x0]
  200e5c:	d2820001 	mov	x1, #0x1000                	// #4096
  200e60:	f2bf4001 	movk	x1, #0xfa00, lsl #16
  200e64:	b9400020 	ldr	w0, [x1]
  200e68:	32000400 	orr	w0, w0, #0x3
  200e6c:	b9000020 	str	w0, [x1]
  200e70:	b0000020 	adrp	x0, 205000 <__TEXT_END__>
  200e74:	91125c00 	add	x0, x0, #0x497
  200e78:	a8c17bfd 	ldp	x29, x30, [sp], #16
  200e7c:	14000bb8 	b	203d5c <tf_log>

0000000000200e80 <bl31_prepare_next_image_entry>:
  200e80:	a9be7bfd 	stp	x29, x30, [sp, #-32]!
  200e84:	910003fd 	mov	x29, sp
  200e88:	a90153f3 	stp	x19, x20, [sp, #16]
  200e8c:	d5380400 	mrs	x0, id_aa64pfr0_el1
  200e90:	d3441c00 	ubfx	x0, x0, #4, #4
  200e94:	f100041f 	cmp	x0, #0x1
  200e98:	540000c1 	b.ne	200eb0 <bl31_prepare_next_image_entry+0x30>  // b.any
  200e9c:	b0000020 	adrp	x0, 205000 <__TEXT_END__>
  200ea0:	91079000 	add	x0, x0, #0x1e4
  200ea4:	94000bae 	bl	203d5c <tf_log>
  200ea8:	9400010a 	bl	2012d0 <console_flush>
  200eac:	97fffd4e 	bl	2003e4 <do_panic>
  200eb0:	d0000020 	adrp	x0, 206000 <__RODATA_END__>
  200eb4:	b9416014 	ldr	w20, [x0, #352]
  200eb8:	2a1403e0 	mov	w0, w20
  200ebc:	97ffffac 	bl	200d6c <bl31_plat_get_next_image_ep_info>
  200ec0:	7100029f 	cmp	w20, #0x0
  200ec4:	aa0003f3 	mov	x19, x0
  200ec8:	b0000021 	adrp	x1, 205000 <__TEXT_END__>
  200ecc:	b0000020 	adrp	x0, 205000 <__TEXT_END__>
  200ed0:	91075821 	add	x1, x1, #0x1d6
  200ed4:	91077400 	add	x0, x0, #0x1dd
  200ed8:	9a800021 	csel	x1, x1, x0, eq  // eq = none
  200edc:	b0000020 	adrp	x0, 205000 <__TEXT_END__>
  200ee0:	9108d000 	add	x0, x0, #0x234
  200ee4:	94000b9e 	bl	203d5c <tf_log>
  200ee8:	aa1303e0 	mov	x0, x19
  200eec:	9400043c 	bl	201fdc <print_entry_point_info>
  200ef0:	aa1303e0 	mov	x0, x19
  200ef4:	94000041 	bl	200ff8 <cm_init_my_context>
  200ef8:	2a1403e0 	mov	w0, w20
  200efc:	a94153f3 	ldp	x19, x20, [sp, #16]
  200f00:	a8c27bfd 	ldp	x29, x30, [sp], #32
  200f04:	14000048 	b	201024 <cm_prepare_el3_exit>

0000000000200f08 <bl31_setup>:
  200f08:	a9bf7bfd 	stp	x29, x30, [sp, #-16]!
  200f0c:	910003fd 	mov	x29, sp
  200f10:	97ffff5c 	bl	200c80 <bl31_early_platform_setup2>
  200f14:	a8c17bfd 	ldp	x29, x30, [sp], #16
  200f18:	17ffff93 	b	200d64 <bl31_plat_arch_setup>

0000000000200f1c <cm_el1_sysregs_context_restore>:
  200f1c:	a9be7bfd 	stp	x29, x30, [sp, #-32]!
  200f20:	910003fd 	mov	x29, sp
  200f24:	a90153f3 	stp	x19, x20, [sp, #16]
  200f28:	2a0003f3 	mov	w19, w0
  200f2c:	9400001b 	bl	200f98 <cm_get_context>
  200f30:	9104c000 	add	x0, x0, #0x130
  200f34:	97fffd51 	bl	200478 <el1_sysregs_context_restore>
  200f38:	34000273 	cbz	w19, 200f84 <cm_el1_sysregs_context_restore+0x68>
  200f3c:	b0000033 	adrp	x19, 205000 <__TEXT_END__>
  200f40:	b0000034 	adrp	x20, 205000 <__TEXT_END__>
  200f44:	911e6273 	add	x19, x19, #0x798
  200f48:	911e6294 	add	x20, x20, #0x798
  200f4c:	eb14027f 	cmp	x19, x20
  200f50:	54000142 	b.cs	200f78 <cm_el1_sysregs_context_restore+0x5c>  // b.hs, b.nlast
  200f54:	f8408661 	ldr	x1, [x19], #8
  200f58:	d2800000 	mov	x0, #0x0                   	// #0
  200f5c:	d63f0020 	blr	x1
  200f60:	17fffffb 	b	200f4c <cm_el1_sysregs_context_restore+0x30>
  200f64:	f8408661 	ldr	x1, [x19], #8
  200f68:	d2800000 	mov	x0, #0x0                   	// #0
  200f6c:	d63f0020 	blr	x1
  200f70:	eb14027f 	cmp	x19, x20
  200f74:	54ffff83 	b.cc	200f64 <cm_el1_sysregs_context_restore+0x48>  // b.lo, b.ul, b.last
  200f78:	a94153f3 	ldp	x19, x20, [sp, #16]
  200f7c:	a8c27bfd 	ldp	x29, x30, [sp], #32
  200f80:	d65f03c0 	ret
  200f84:	b0000033 	adrp	x19, 205000 <__TEXT_END__>
  200f88:	b0000034 	adrp	x20, 205000 <__TEXT_END__>
  200f8c:	911e6273 	add	x19, x19, #0x798
  200f90:	911e6294 	add	x20, x20, #0x798
  200f94:	17fffff7 	b	200f70 <cm_el1_sysregs_context_restore+0x54>

0000000000200f98 <cm_get_context>:
  200f98:	d53ed041 	mrs	x1, tpidr_el3
  200f9c:	f8605820 	ldr	x0, [x1, w0, uxtw #3]
  200fa0:	d65f03c0 	ret

0000000000200fa4 <cm_get_context_by_index>:
  200fa4:	a9be7bfd 	stp	x29, x30, [sp, #-32]!
  200fa8:	910003fd 	mov	x29, sp
  200fac:	f9000bf3 	str	x19, [sp, #16]
  200fb0:	2a0103f3 	mov	w19, w1
  200fb4:	97fffcce 	bl	2002ec <_cpu_data_by_index>
  200fb8:	f8735800 	ldr	x0, [x0, w19, uxtw #3]
  200fbc:	f9400bf3 	ldr	x19, [sp, #16]
  200fc0:	a8c27bfd 	ldp	x29, x30, [sp], #32
  200fc4:	d65f03c0 	ret

0000000000200fc8 <cm_init>:
  200fc8:	d65f03c0 	ret

0000000000200fcc <cm_init_context_by_index>:
  200fcc:	a9be7bfd 	stp	x29, x30, [sp, #-32]!
  200fd0:	910003fd 	mov	x29, sp
  200fd4:	f9000bf3 	str	x19, [sp, #16]
  200fd8:	aa0103f3 	mov	x19, x1
  200fdc:	b9400421 	ldr	w1, [x1, #4]
  200fe0:	12000021 	and	w1, w1, #0x1
  200fe4:	97fffff0 	bl	200fa4 <cm_get_context_by_index>
  200fe8:	aa1303e1 	mov	x1, x19
  200fec:	f9400bf3 	ldr	x19, [sp, #16]
  200ff0:	a8c27bfd 	ldp	x29, x30, [sp], #32
  200ff4:	1400004e 	b	20112c <cm_setup_context>

0000000000200ff8 <cm_init_my_context>:
  200ff8:	a9be7bfd 	stp	x29, x30, [sp, #-32]!
  200ffc:	910003fd 	mov	x29, sp
  201000:	f9000bf3 	str	x19, [sp, #16]
  201004:	aa0003f3 	mov	x19, x0
  201008:	b9400400 	ldr	w0, [x0, #4]
  20100c:	12000000 	and	w0, w0, #0x1
  201010:	97ffffe2 	bl	200f98 <cm_get_context>
  201014:	aa1303e1 	mov	x1, x19
  201018:	f9400bf3 	ldr	x19, [sp, #16]
  20101c:	a8c27bfd 	ldp	x29, x30, [sp], #32
  201020:	14000043 	b	20112c <cm_setup_context>

0000000000201024 <cm_prepare_el3_exit>:
  201024:	a9be7bfd 	stp	x29, x30, [sp, #-32]!
  201028:	910003fd 	mov	x29, sp
  20102c:	f9000bf3 	str	x19, [sp, #16]
  201030:	2a0003f3 	mov	w19, w0
  201034:	97ffffd9 	bl	200f98 <cm_get_context>
  201038:	7100067f 	cmp	w19, #0x1
  20103c:	54000141 	b.ne	201064 <cm_prepare_el3_exit+0x40>  // b.any
  201040:	f9408001 	ldr	x1, [x0, #256]
  201044:	92780022 	and	x2, x1, #0x100
  201048:	364001a1 	tbz	w1, #8, 20107c <cm_prepare_el3_exit+0x58>
  20104c:	f940a000 	ldr	x0, [x0, #320]
  201050:	d2810601 	mov	x1, #0x830                 	// #2096
  201054:	f2a618a1 	movk	x1, #0x30c5, lsl #16
  201058:	92670000 	and	x0, x0, #0x2000000
  20105c:	aa010000 	orr	x0, x0, x1
  201060:	d51c1000 	msr	sctlr_el2, x0
  201064:	2a1303e0 	mov	w0, w19
  201068:	97ffffad 	bl	200f1c <cm_el1_sysregs_context_restore>
  20106c:	2a1303e0 	mov	w0, w19
  201070:	f9400bf3 	ldr	x19, [sp, #16]
  201074:	a8c27bfd 	ldp	x29, x30, [sp], #32
  201078:	14000025 	b	20110c <cm_set_next_eret_context>
  20107c:	d5380400 	mrs	x0, id_aa64pfr0_el1
  201080:	f2780c1f 	tst	x0, #0xf00
  201084:	54ffff00 	b.eq	201064 <cm_prepare_el3_exit+0x40>  // b.none
  201088:	f2760021 	ands	x1, x1, #0x400
  20108c:	d2b00000 	mov	x0, #0x80000000            	// #2147483648
  201090:	9a800021 	csel	x1, x1, x0, eq  // eq = none
  201094:	b2580421 	orr	x1, x1, #0x30000000000
  201098:	d51c1101 	msr	hcr_el2, x1
  20109c:	d2867fe0 	mov	x0, #0x33ff                	// #13311
  2010a0:	d51c1140 	msr	cptr_el2, x0
  2010a4:	d2800060 	mov	x0, #0x3                   	// #3
  2010a8:	d51ce100 	msr	cnthctl_el2, x0
  2010ac:	d51ce062 	msr	cntvoff_el2, x2
  2010b0:	d5380000 	mrs	x0, midr_el1
  2010b4:	d51c0000 	msr	vpidr_el2, x0
  2010b8:	d53800a0 	mrs	x0, mpidr_el1
  2010bc:	d51c00a0 	msr	vmpidr_el2, x0
  2010c0:	d51c2102 	msr	vttbr_el2, x2
  2010c4:	d53b9c00 	mrs	x0, pmcr_el0
  2010c8:	d34b3c00 	ubfx	x0, x0, #11, #5
  2010cc:	d2a08041 	mov	x1, #0x4020000             	// #67239936
  2010d0:	aa010000 	orr	x0, x0, x1
  2010d4:	d51c1120 	msr	mdcr_el2, x0
  2010d8:	d51c1162 	msr	hstr_el2, x2
  2010dc:	d51ce222 	msr	cnthp_ctl_el2, x2
  2010e0:	17ffffe1 	b	201064 <cm_prepare_el3_exit+0x40>

00000000002010e4 <cm_set_context_by_index>:
  2010e4:	a9be7bfd 	stp	x29, x30, [sp, #-32]!
  2010e8:	910003fd 	mov	x29, sp
  2010ec:	a90153f3 	stp	x19, x20, [sp, #16]
  2010f0:	2a0203f3 	mov	w19, w2
  2010f4:	aa0103f4 	mov	x20, x1
  2010f8:	97fffc7d 	bl	2002ec <_cpu_data_by_index>
  2010fc:	f8335814 	str	x20, [x0, w19, uxtw #3]
  201100:	a94153f3 	ldp	x19, x20, [sp, #16]
  201104:	a8c27bfd 	ldp	x29, x30, [sp], #32
  201108:	d65f03c0 	ret

000000000020110c <cm_set_next_eret_context>:
  20110c:	a9bf7bfd 	stp	x29, x30, [sp, #-16]!
  201110:	910003fd 	mov	x29, sp
  201114:	97ffffa1 	bl	200f98 <cm_get_context>
  201118:	d50041bf 	msr	spsel, #0x1
  20111c:	9100001f 	mov	sp, x0
  201120:	d50040bf 	msr	spsel, #0x0
  201124:	a8c17bfd 	ldp	x29, x30, [sp], #16
  201128:	d65f03c0 	ret

000000000020112c <cm_setup_context>:
  20112c:	a9bd7bfd 	stp	x29, x30, [sp, #-48]!
  201130:	910003fd 	mov	x29, sp
  201134:	a9025bf5 	stp	x21, x22, [sp, #32]
  201138:	aa0003f6 	mov	x22, x0
  20113c:	b9400435 	ldr	w21, [x1, #4]
  201140:	a90153f3 	stp	x19, x20, [sp, #16]
  201144:	aa0103f4 	mov	x20, x1
  201148:	120002b5 	and	w21, w21, #0x1
  20114c:	d2804401 	mov	x1, #0x220                 	// #544
  201150:	97fffe90 	bl	200b90 <zeromem>
  201154:	d53e1113 	mrs	x19, scr_el3
  201158:	9281a0e0 	mov	x0, #0xfffffffffffff2f8    	// #-3336
  20115c:	8a000273 	and	x19, x19, x0
  201160:	34000055 	cbz	w21, 201168 <cm_setup_context+0x3c>
  201164:	b2400273 	orr	x19, x19, #0x1
  201168:	b9401280 	ldr	w0, [x20, #16]
  20116c:	37200040 	tbnz	w0, #4, 201174 <cm_setup_context+0x48>
  201170:	b2760273 	orr	x19, x19, #0x400
  201174:	b9400680 	ldr	w0, [x20, #4]
  201178:	36100040 	tbz	w0, #2, 201180 <cm_setup_context+0x54>
  20117c:	b2750273 	orr	x19, x19, #0x800
  201180:	927cfa73 	and	x19, x19, #0xfffffffffffffff7
  201184:	34000055 	cbz	w21, 20118c <cm_setup_context+0x60>
  201188:	b2700673 	orr	x19, x19, #0x30000
  20118c:	d5380420 	mrs	x0, id_aa64pfr1_el1
  201190:	53082c00 	ubfx	w0, w0, #8, #4
  201194:	7100041f 	cmp	w0, #0x1
  201198:	54000061 	b.ne	2011a4 <cm_setup_context+0x78>  // b.any
  20119c:	b2660273 	orr	x19, x19, #0x4000000
  2011a0:	14000004 	b	2011b0 <cm_setup_context+0x84>
  2011a4:	7100081f 	cmp	w0, #0x2
  2011a8:	1a9f02a0 	csel	w0, w21, wzr, eq  // eq = none
  2011ac:	35ffff80 	cbnz	w0, 20119c <cm_setup_context+0x70>
  2011b0:	2a1503e0 	mov	w0, w21
  2011b4:	940000d2 	bl	2014fc <get_scr_el3_from_routing_model>
  2011b8:	b9401281 	ldr	w1, [x20, #16]
  2011bc:	aa000273 	orr	x19, x19, x0
  2011c0:	d3441023 	ubfx	x3, x1, #4, #1
  2011c4:	37200241 	tbnz	w1, #4, 20120c <cm_setup_context+0xe0>
  2011c8:	d3420c20 	ubfx	x0, x1, #2, #2
  2011cc:	7100081f 	cmp	w0, #0x2
  2011d0:	540003a1 	b.ne	201244 <cm_setup_context+0x118>  // b.any
  2011d4:	d5380702 	mrs	x2, id_aa64mmfr0_el1
  2011d8:	d2802000 	mov	x0, #0x100                 	// #256
  2011dc:	d378ec42 	ubfx	x2, x2, #56, #4
  2011e0:	b2780264 	orr	x4, x19, #0x100
  2011e4:	f100045f 	cmp	x2, #0x1
  2011e8:	f2a10000 	movk	x0, #0x800, lsl #16
  2011ec:	aa000273 	orr	x19, x19, x0
  2011f0:	9a840273 	csel	x19, x19, x4, eq  // eq = none
  2011f4:	d5380700 	mrs	x0, id_aa64mmfr0_el1
  2011f8:	d37cfc00 	lsr	x0, x0, #60
  2011fc:	f100081f 	cmp	x0, #0x2
  201200:	540000c1 	b.ne	201218 <cm_setup_context+0xec>  // b.any
  201204:	b2640273 	orr	x19, x19, #0x10000000
  201208:	14000004 	b	201218 <cm_setup_context+0xec>
  20120c:	12000c20 	and	w0, w1, #0xf
  201210:	7100281f 	cmp	w0, #0xa
  201214:	54fffe00 	b.eq	2011d4 <cm_setup_context+0xa8>  // b.none
  201218:	35000175 	cbnz	w21, 201244 <cm_setup_context+0x118>
  20121c:	d3420c21 	ubfx	x1, x1, #2, #2
  201220:	7100083f 	cmp	w1, #0x2
  201224:	54000101 	b.ne	201244 <cm_setup_context+0x118>  // b.any
  201228:	b26e0273 	orr	x19, x19, #0x40000
  20122c:	340000c3 	cbz	w3, 201244 <cm_setup_context+0x118>
  201230:	90000020 	adrp	x0, 205000 <__TEXT_END__>
  201234:	910cf000 	add	x0, x0, #0x33c
  201238:	94000ac9 	bl	203d5c <tf_log>
  20123c:	94000025 	bl	2012d0 <console_flush>
  201240:	97fffc69 	bl	2003e4 <do_panic>
  201244:	b9400681 	ldr	w1, [x20, #4]
  201248:	d2810015 	mov	x21, #0x800                 	// #2048
  20124c:	d2810700 	mov	x0, #0x838                 	// #2104
  201250:	7100007f 	cmp	w3, #0x0
  201254:	f2a018a0 	movk	x0, #0xc5, lsl #16
  201258:	f2a61a15 	movk	x21, #0x30d0, lsl #16
  20125c:	d3689c21 	lsl	x1, x1, #24
  201260:	92670021 	and	x1, x1, #0x2000000
  201264:	aa150035 	orr	x21, x1, x21
  201268:	aa000021 	orr	x1, x1, x0
  20126c:	9a951035 	csel	x21, x1, x21, ne  // ne = any
  201270:	d5380720 	mrs	x0, id_aa64mmfr1_el1
  201274:	d3608c00 	ubfx	x0, x0, #32, #4
  201278:	f100041f 	cmp	x0, #0x1
  20127c:	540000c1 	b.ne	201294 <cm_setup_context+0x168>  // b.any
  201280:	940002ef 	bl	201e3c <plat_arm_set_twedel_scr_el3>
  201284:	3100041f 	cmn	w0, #0x1
  201288:	54000060 	b.eq	201294 <cm_setup_context+0x168>  // b.none
  20128c:	b3620c13 	bfi	x19, x0, #30, #4
  201290:	b2630273 	orr	x19, x19, #0x20000000
  201294:	f900a2d5 	str	x21, [x22, #320]
  201298:	d5381020 	mrs	x0, actlr_el1
  20129c:	f9400681 	ldr	x1, [x20, #8]
  2012a0:	f90092c1 	str	x1, [x22, #288]
  2012a4:	b9401281 	ldr	w1, [x20, #16]
  2012a8:	d2800802 	mov	x2, #0x40                  	// #64
  2012ac:	f90082d3 	str	x19, [x22, #256]
  2012b0:	f9008ec1 	str	x1, [x22, #280]
  2012b4:	91006281 	add	x1, x20, #0x18
  2012b8:	f900cac0 	str	x0, [x22, #400]
  2012bc:	aa1603e0 	mov	x0, x22
  2012c0:	a94153f3 	ldp	x19, x20, [sp, #16]
  2012c4:	a9425bf5 	ldp	x21, x22, [sp, #32]
  2012c8:	a8c37bfd 	ldp	x29, x30, [sp], #48
  2012cc:	140001fd 	b	201ac0 <memcpy>

00000000002012d0 <console_flush>:
  2012d0:	a9be7bfd 	stp	x29, x30, [sp, #-32]!
  2012d4:	f0000020 	adrp	x0, 208000 <__STACKS_START__+0x1e80>
  2012d8:	910003fd 	mov	x29, sp
  2012dc:	a90153f3 	stp	x19, x20, [sp, #16]
  2012e0:	b0000034 	adrp	x20, 206000 <__RODATA_END__>
  2012e4:	9105b294 	add	x20, x20, #0x16c
  2012e8:	f946f413 	ldr	x19, [x0, #3560]
  2012ec:	b5000093 	cbnz	x19, 2012fc <console_flush+0x2c>
  2012f0:	a94153f3 	ldp	x19, x20, [sp, #16]
  2012f4:	a8c27bfd 	ldp	x29, x30, [sp], #32
  2012f8:	d65f03c0 	ret
  2012fc:	f9400660 	ldr	x0, [x19, #8]
  201300:	39400281 	ldrb	w1, [x20]
  201304:	ea00003f 	tst	x1, x0
  201308:	540000a0 	b.eq	20131c <console_flush+0x4c>  // b.none
  20130c:	f9401261 	ldr	x1, [x19, #32]
  201310:	b4000061 	cbz	x1, 20131c <console_flush+0x4c>
  201314:	aa1303e0 	mov	x0, x19
  201318:	d63f0020 	blr	x1
  20131c:	f9400273 	ldr	x19, [x19]
  201320:	17fffff3 	b	2012ec <console_flush+0x1c>

0000000000201324 <console_is_registered>:
  201324:	f0000021 	adrp	x1, 208000 <__STACKS_START__+0x1e80>
  201328:	f946f421 	ldr	x1, [x1, #3560]
  20132c:	b5000061 	cbnz	x1, 201338 <console_is_registered+0x14>
  201330:	52800000 	mov	w0, #0x0                   	// #0
  201334:	d65f03c0 	ret
  201338:	eb00003f 	cmp	x1, x0
  20133c:	54000060 	b.eq	201348 <console_is_registered+0x24>  // b.none
  201340:	f9400021 	ldr	x1, [x1]
  201344:	17fffffa 	b	20132c <console_is_registered+0x8>
  201348:	52800020 	mov	w0, #0x1                   	// #1
  20134c:	17fffffa 	b	201334 <console_is_registered+0x10>

0000000000201350 <console_putc>:
  201350:	a9bd7bfd 	stp	x29, x30, [sp, #-48]!
  201354:	910003fd 	mov	x29, sp
  201358:	a9025bf5 	stp	x21, x22, [sp, #32]
  20135c:	2a0003f5 	mov	w21, w0
  201360:	f0000020 	adrp	x0, 208000 <__STACKS_START__+0x1e80>
  201364:	a90153f3 	stp	x19, x20, [sp, #16]
  201368:	b0000036 	adrp	x22, 206000 <__RODATA_END__>
  20136c:	9105b2d6 	add	x22, x22, #0x16c
  201370:	f946f413 	ldr	x19, [x0, #3560]
  201374:	12800ff4 	mov	w20, #0xffffff80            	// #-128
  201378:	b50000d3 	cbnz	x19, 201390 <console_putc+0x40>
  20137c:	2a1403e0 	mov	w0, w20
  201380:	a94153f3 	ldp	x19, x20, [sp, #16]
  201384:	a9425bf5 	ldp	x21, x22, [sp, #32]
  201388:	a8c37bfd 	ldp	x29, x30, [sp], #48
  20138c:	d65f03c0 	ret
  201390:	f9400660 	ldr	x0, [x19, #8]
  201394:	394002c1 	ldrb	w1, [x22]
  201398:	ea00003f 	tst	x1, x0
  20139c:	54000180 	b.eq	2013cc <console_putc+0x7c>  // b.none
  2013a0:	f9400a62 	ldr	x2, [x19, #16]
  2013a4:	b4000142 	cbz	x2, 2013cc <console_putc+0x7c>
  2013a8:	71002abf 	cmp	w21, #0xa
  2013ac:	54000140 	b.eq	2013d4 <console_putc+0x84>  // b.none
  2013b0:	f9400a62 	ldr	x2, [x19, #16]
  2013b4:	aa1303e1 	mov	x1, x19
  2013b8:	2a1503e0 	mov	w0, w21
  2013bc:	d63f0040 	blr	x2
  2013c0:	3102029f 	cmn	w20, #0x80
  2013c4:	7a401280 	ccmp	w20, w0, #0x0, ne  // ne = any
  2013c8:	1a80d294 	csel	w20, w20, w0, le
  2013cc:	f9400273 	ldr	x19, [x19]
  2013d0:	17ffffea 	b	201378 <console_putc+0x28>
  2013d4:	3647fee0 	tbz	w0, #8, 2013b0 <console_putc+0x60>
  2013d8:	aa1303e1 	mov	x1, x19
  2013dc:	528001a0 	mov	w0, #0xd                   	// #13
  2013e0:	d63f0040 	blr	x2
  2013e4:	36fffe60 	tbz	w0, #31, 2013b0 <console_putc+0x60>
  2013e8:	17fffff6 	b	2013c0 <console_putc+0x70>

00000000002013ec <console_register>:
  2013ec:	aa0003e2 	mov	x2, x0
  2013f0:	a9bf7bfd 	stp	x29, x30, [sp, #-16]!
  2013f4:	910003fd 	mov	x29, sp
  2013f8:	97ffffcb 	bl	201324 <console_is_registered>
  2013fc:	7100041f 	cmp	w0, #0x1
  201400:	540000a0 	b.eq	201414 <console_register+0x28>  // b.none
  201404:	f0000020 	adrp	x0, 208000 <__STACKS_START__+0x1e80>
  201408:	f946f401 	ldr	x1, [x0, #3560]
  20140c:	f9000041 	str	x1, [x2]
  201410:	f906f402 	str	x2, [x0, #3560]
  201414:	52800020 	mov	w0, #0x1                   	// #1
  201418:	a8c17bfd 	ldp	x29, x30, [sp], #16
  20141c:	d65f03c0 	ret

0000000000201420 <enable_mmu_el3>:
  201420:	b0000022 	adrp	x2, 206000 <__RODATA_END__>
  201424:	9102a042 	add	x2, x2, #0xa8
  201428:	a9be7bfd 	stp	x29, x30, [sp, #-32]!
  20142c:	2a0003e1 	mov	w1, w0
  201430:	52800065 	mov	w5, #0x3                   	// #3
  201434:	910003fd 	mov	x29, sp
  201438:	f9400444 	ldr	x4, [x2, #8]
  20143c:	f9402043 	ldr	x3, [x2, #64]
  201440:	f9401842 	ldr	x2, [x2, #48]
  201444:	f9000bf3 	str	x19, [sp, #16]
  201448:	2a0003f3 	mov	w19, w0
  20144c:	f0000020 	adrp	x0, 208000 <__STACKS_START__+0x1e80>
  201450:	9137c000 	add	x0, x0, #0xdf0
  201454:	94000937 	bl	203930 <setup_mmu_cfg>
  201458:	2a1303e0 	mov	w0, w19
  20145c:	f9400bf3 	ldr	x19, [sp, #16]
  201460:	a8c27bfd 	ldp	x29, x30, [sp], #32
  201464:	17fffc3f 	b	200560 <enable_mmu_direct_el3>

0000000000201468 <generic_delay_timer_init>:
  201468:	a9bf7bfd 	stp	x29, x30, [sp, #-16]!
  20146c:	910003fd 	mov	x29, sp
  201470:	940002a4 	bl	201f00 <plat_get_syscnt_freq2>
  201474:	2a0003e1 	mov	w1, w0
  201478:	52884800 	mov	w0, #0x4240                	// #16960
  20147c:	528000c3 	mov	w3, #0x6                   	// #6
  201480:	72a001e0 	movk	w0, #0xf, lsl #16
  201484:	52800142 	mov	w2, #0xa                   	// #10
  201488:	1ac20824 	udiv	w4, w1, w2
  20148c:	1b028485 	msub	w5, w4, w2, w1
  201490:	350000a5 	cbnz	w5, 2014a4 <generic_delay_timer_init+0x3c>
  201494:	1ac20800 	udiv	w0, w0, w2
  201498:	2a0403e1 	mov	w1, w4
  20149c:	71000463 	subs	w3, w3, #0x1
  2014a0:	54ffff41 	b.ne	201488 <generic_delay_timer_init+0x20>  // b.any
  2014a4:	a8c17bfd 	ldp	x29, x30, [sp], #16
  2014a8:	14000001 	b	2014ac <generic_delay_timer_init_args>

00000000002014ac <generic_delay_timer_init_args>:
  2014ac:	2a0003e4 	mov	w4, w0
  2014b0:	f0000023 	adrp	x3, 208000 <__STACKS_START__+0x1e80>
  2014b4:	912de060 	add	x0, x3, #0xb78
  2014b8:	90000002 	adrp	x2, 201000 <cm_init_my_context+0x8>
  2014bc:	9114b042 	add	x2, x2, #0x52c
  2014c0:	f905bc62 	str	x2, [x3, #2936]
  2014c4:	29010404 	stp	w4, w1, [x0, #8]
  2014c8:	14000a4a 	b	203df0 <timer_init>

00000000002014cc <get_arm_std_svc_args>:
  2014cc:	90000020 	adrp	x0, 205000 <__TEXT_END__>
  2014d0:	91000000 	add	x0, x0, #0x0
  2014d4:	d65f03c0 	ret

00000000002014d8 <get_interrupt_type_handler>:
  2014d8:	7100081f 	cmp	w0, #0x2
  2014dc:	540000c8 	b.hi	2014f4 <get_interrupt_type_handler+0x1c>  // b.pmore
  2014e0:	d37b7c00 	ubfiz	x0, x0, #5, #32
  2014e4:	f0000021 	adrp	x1, 208000 <__STACKS_START__+0x1e80>
  2014e8:	912c2021 	add	x1, x1, #0xb08
  2014ec:	f8606820 	ldr	x0, [x1, x0]
  2014f0:	d65f03c0 	ret
  2014f4:	d2800000 	mov	x0, #0x0                   	// #0
  2014f8:	17fffffe 	b	2014f0 <get_interrupt_type_handler+0x18>

00000000002014fc <get_scr_el3_from_routing_model>:
  2014fc:	f0000021 	adrp	x1, 208000 <__STACKS_START__+0x1e80>
  201500:	912c2022 	add	x2, x1, #0xb08
  201504:	2a0003e1 	mov	w1, w0
  201508:	8b010c40 	add	x0, x2, x1, lsl #3
  20150c:	8b010c43 	add	x3, x2, x1, lsl #3
  201510:	8b010c41 	add	x1, x2, x1, lsl #3
  201514:	f9400463 	ldr	x3, [x3, #8]
  201518:	f9402400 	ldr	x0, [x0, #72]
  20151c:	f9401421 	ldr	x1, [x1, #40]
  201520:	aa030000 	orr	x0, x0, x3
  201524:	aa010000 	orr	x0, x0, x1
  201528:	d65f03c0 	ret

000000000020152c <get_timer_value>:
  20152c:	d53be020 	mrs	x0, cntpct_el0
  201530:	2a2003e0 	mvn	w0, w0
  201534:	d65f03c0 	ret

0000000000201538 <gicd_clr_igroupr>:
  201538:	2a0103e3 	mov	w3, w1
  20153c:	aa0003e4 	mov	x4, x0
  201540:	a9bf7bfd 	stp	x29, x30, [sp, #-16]!
  201544:	910003fd 	mov	x29, sp
  201548:	9400000d 	bl	20157c <gicd_read_igroupr>
  20154c:	a8c17bfd 	ldp	x29, x30, [sp], #16
  201550:	52800021 	mov	w1, #0x1                   	// #1
  201554:	1ac32021 	lsl	w1, w1, w3
  201558:	0a210002 	bic	w2, w0, w1
  20155c:	2a0303e1 	mov	w1, w3
  201560:	aa0403e0 	mov	x0, x4
  201564:	1400002d 	b	201618 <gicd_write_igroupr>

0000000000201568 <gicd_read_icfgr>:
  201568:	53047c21 	lsr	w1, w1, #4
  20156c:	91300000 	add	x0, x0, #0xc00
  201570:	d37e6c21 	ubfiz	x1, x1, #2, #28
  201574:	b8606820 	ldr	w0, [x1, x0]
  201578:	d65f03c0 	ret

000000000020157c <gicd_read_igroupr>:
  20157c:	53057c21 	lsr	w1, w1, #5
  201580:	91020000 	add	x0, x0, #0x80
  201584:	d37e6821 	ubfiz	x1, x1, #2, #27
  201588:	b8606820 	ldr	w0, [x1, x0]
  20158c:	d65f03c0 	ret

0000000000201590 <gicd_set_icfgr>:
  201590:	531f0c26 	ubfiz	w6, w1, #1, #4
  201594:	aa0003e5 	mov	x5, x0
  201598:	2a0103e4 	mov	w4, w1
  20159c:	a9bf7bfd 	stp	x29, x30, [sp, #-16]!
  2015a0:	910003fd 	mov	x29, sp
  2015a4:	97fffff1 	bl	201568 <gicd_read_icfgr>
  2015a8:	12000442 	and	w2, w2, #0x3
  2015ac:	a8c17bfd 	ldp	x29, x30, [sp], #16
  2015b0:	52800063 	mov	w3, #0x3                   	// #3
  2015b4:	1ac62063 	lsl	w3, w3, w6
  2015b8:	0a230003 	bic	w3, w0, w3
  2015bc:	1ac62042 	lsl	w2, w2, w6
  2015c0:	2a0403e1 	mov	w1, w4
  2015c4:	2a030042 	orr	w2, w2, w3
  2015c8:	aa0503e0 	mov	x0, x5
  2015cc:	1400000e 	b	201604 <gicd_write_icfgr>

00000000002015d0 <gicd_set_ipriorityr>:
  2015d0:	91100000 	add	x0, x0, #0x400
  2015d4:	2a0103e1 	mov	w1, w1
  2015d8:	12001c42 	and	w2, w2, #0xff
  2015dc:	38216802 	strb	w2, [x0, x1]
  2015e0:	d65f03c0 	ret

00000000002015e4 <gicd_set_isenabler>:
  2015e4:	52800022 	mov	w2, #0x1                   	// #1
  2015e8:	1ac12042 	lsl	w2, w2, w1
  2015ec:	14000014 	b	20163c <gicd_write_isenabler>

00000000002015f0 <gicd_write_icenabler>:
  2015f0:	53057c21 	lsr	w1, w1, #5
  2015f4:	91060000 	add	x0, x0, #0x180
  2015f8:	d37e6821 	ubfiz	x1, x1, #2, #27
  2015fc:	b8206822 	str	w2, [x1, x0]
  201600:	d65f03c0 	ret

0000000000201604 <gicd_write_icfgr>:
  201604:	53047c21 	lsr	w1, w1, #4
  201608:	91300000 	add	x0, x0, #0xc00
  20160c:	d37e6c21 	ubfiz	x1, x1, #2, #28
  201610:	b8206822 	str	w2, [x1, x0]
  201614:	d65f03c0 	ret

0000000000201618 <gicd_write_igroupr>:
  201618:	53057c21 	lsr	w1, w1, #5
  20161c:	91020000 	add	x0, x0, #0x80
  201620:	d37e6821 	ubfiz	x1, x1, #2, #27
  201624:	b8206822 	str	w2, [x1, x0]
  201628:	d65f03c0 	ret

000000000020162c <gicd_write_ipriorityr>:
  20162c:	927e7421 	and	x1, x1, #0xfffffffc
  201630:	91100000 	add	x0, x0, #0x400
  201634:	b8206822 	str	w2, [x1, x0]
  201638:	d65f03c0 	ret

000000000020163c <gicd_write_isenabler>:
  20163c:	53057c21 	lsr	w1, w1, #5
  201640:	91040000 	add	x0, x0, #0x100
  201644:	d37e6821 	ubfiz	x1, x1, #2, #27
  201648:	b8206822 	str	w2, [x1, x0]
  20164c:	d65f03c0 	ret

0000000000201650 <gicv2_cpuif_disable>:
  201650:	f0000020 	adrp	x0, 208000 <__STACKS_START__+0x1e80>
  201654:	f945b400 	ldr	x0, [x0, #2920]
  201658:	f9400401 	ldr	x1, [x0, #8]
  20165c:	b9400020 	ldr	w0, [x1]
  201660:	121e7400 	and	w0, w0, #0xfffffffc
  201664:	321b0c00 	orr	w0, w0, #0x1e0
  201668:	b9000020 	str	w0, [x1]
  20166c:	d65f03c0 	ret

0000000000201670 <gicv2_cpuif_enable>:
  201670:	f0000020 	adrp	x0, 208000 <__STACKS_START__+0x1e80>
  201674:	52801fe1 	mov	w1, #0xff                  	// #255
  201678:	f945b400 	ldr	x0, [x0, #2920]
  20167c:	f9400400 	ldr	x0, [x0, #8]
  201680:	b9000401 	str	w1, [x0, #4]
  201684:	52803d21 	mov	w1, #0x1e9                 	// #489
  201688:	b9000001 	str	w1, [x0]
  20168c:	d65f03c0 	ret

0000000000201690 <gicv2_distif_init>:
  201690:	a9be7bfd 	stp	x29, x30, [sp, #-32]!
  201694:	910003fd 	mov	x29, sp
  201698:	a90153f3 	stp	x19, x20, [sp, #16]
  20169c:	f0000034 	adrp	x20, 208000 <__STACKS_START__+0x1e80>
  2016a0:	f945b680 	ldr	x0, [x20, #2920]
  2016a4:	f9400000 	ldr	x0, [x0]
  2016a8:	b9400013 	ldr	w19, [x0]
  2016ac:	121e7661 	and	w1, w19, #0xfffffffc
  2016b0:	b9000001 	str	w1, [x0]
  2016b4:	32000273 	orr	w19, w19, #0x1
  2016b8:	94000090 	bl	2018f8 <gicv2_spis_configure_defaults>
  2016bc:	f945b680 	ldr	x0, [x20, #2920]
  2016c0:	b9402802 	ldr	w2, [x0, #40]
  2016c4:	f9401001 	ldr	x1, [x0, #32]
  2016c8:	f9400000 	ldr	x0, [x0]
  2016cc:	94000060 	bl	20184c <gicv2_secure_spis_configure_props>
  2016d0:	f945b680 	ldr	x0, [x20, #2920]
  2016d4:	f9400000 	ldr	x0, [x0]
  2016d8:	b9000013 	str	w19, [x0]
  2016dc:	a94153f3 	ldp	x19, x20, [sp, #16]
  2016e0:	a8c27bfd 	ldp	x29, x30, [sp], #32
  2016e4:	d65f03c0 	ret

00000000002016e8 <gicv2_driver_init>:
  2016e8:	f9400001 	ldr	x1, [x0]
  2016ec:	b94fe821 	ldr	w1, [x1, #4072]
  2016f0:	f0000021 	adrp	x1, 208000 <__STACKS_START__+0x1e80>
  2016f4:	f905b420 	str	x0, [x1, #2920]
  2016f8:	90000020 	adrp	x0, 205000 <__TEXT_END__>
  2016fc:	910c7400 	add	x0, x0, #0x31d
  201700:	14000997 	b	203d5c <tf_log>

0000000000201704 <gicv2_get_pending_interrupt_type>:
  201704:	f0000020 	adrp	x0, 208000 <__STACKS_START__+0x1e80>
  201708:	f945b400 	ldr	x0, [x0, #2920]
  20170c:	f9400400 	ldr	x0, [x0, #8]
  201710:	b9401800 	ldr	w0, [x0, #24]
  201714:	12002400 	and	w0, w0, #0x3ff
  201718:	d65f03c0 	ret

000000000020171c <gicv2_pcpu_distif_init>:
  20171c:	a9be7bfd 	stp	x29, x30, [sp, #-32]!
  201720:	910003fd 	mov	x29, sp
  201724:	f9000bf3 	str	x19, [sp, #16]
  201728:	f0000033 	adrp	x19, 208000 <__STACKS_START__+0x1e80>
  20172c:	f945b660 	ldr	x0, [x19, #2920]
  201730:	b9402802 	ldr	w2, [x0, #40]
  201734:	f9401001 	ldr	x1, [x0, #32]
  201738:	f9400000 	ldr	x0, [x0]
  20173c:	9400000a 	bl	201764 <gicv2_secure_ppi_sgi_setup_props>
  201740:	f945b660 	ldr	x0, [x19, #2920]
  201744:	f9400001 	ldr	x1, [x0]
  201748:	b9400020 	ldr	w0, [x1]
  20174c:	37000060 	tbnz	w0, #0, 201758 <gicv2_pcpu_distif_init+0x3c>
  201750:	32000000 	orr	w0, w0, #0x1
  201754:	b9000020 	str	w0, [x1]
  201758:	f9400bf3 	ldr	x19, [sp, #16]
  20175c:	a8c27bfd 	ldp	x29, x30, [sp], #32
  201760:	d65f03c0 	ret

0000000000201764 <gicv2_secure_ppi_sgi_setup_props>:
  201764:	a9bc7bfd 	stp	x29, x30, [sp, #-64]!
  201768:	910003fd 	mov	x29, sp
  20176c:	a90153f3 	stp	x19, x20, [sp, #16]
  201770:	aa0103f3 	mov	x19, x1
  201774:	aa0003f4 	mov	x20, x0
  201778:	52800001 	mov	w1, #0x0                   	// #0
  20177c:	a9025bf5 	stp	x21, x22, [sp, #32]
  201780:	2a0203f5 	mov	w21, w2
  201784:	52800016 	mov	w22, #0x0                   	// #0
  201788:	12800002 	mov	w2, #0xffffffff            	// #-1
  20178c:	f9001bf7 	str	x23, [sp, #48]
  201790:	97ffff98 	bl	2015f0 <gicd_write_icenabler>
  201794:	2a1603e1 	mov	w1, w22
  201798:	aa1403e0 	mov	x0, x20
  20179c:	110012d6 	add	w22, w22, #0x4
  2017a0:	3201c3e2 	mov	w2, #0x80808080            	// #-2139062144
  2017a4:	97ffffa2 	bl	20162c <gicd_write_ipriorityr>
  2017a8:	710082df 	cmp	w22, #0x20
  2017ac:	54ffff41 	b.ne	201794 <gicv2_secure_ppi_sgi_setup_props+0x30>  // b.any
  2017b0:	8b354a75 	add	x21, x19, w21, uxtw #2
  2017b4:	52800016 	mov	w22, #0x0                   	// #0
  2017b8:	52800037 	mov	w23, #0x1                   	// #1
  2017bc:	eb1302bf 	cmp	x21, x19
  2017c0:	540001a1 	b.ne	2017f4 <gicv2_secure_ppi_sgi_setup_props+0x90>  // b.any
  2017c4:	2a3603e2 	mvn	w2, w22
  2017c8:	aa1403e0 	mov	x0, x20
  2017cc:	52800001 	mov	w1, #0x0                   	// #0
  2017d0:	97ffff92 	bl	201618 <gicd_write_igroupr>
  2017d4:	2a1603e2 	mov	w2, w22
  2017d8:	aa1403e0 	mov	x0, x20
  2017dc:	a94153f3 	ldp	x19, x20, [sp, #16]
  2017e0:	52800001 	mov	w1, #0x0                   	// #0
  2017e4:	a9425bf5 	ldp	x21, x22, [sp, #32]
  2017e8:	f9401bf7 	ldr	x23, [sp, #48]
  2017ec:	a8c47bfd 	ldp	x29, x30, [sp], #64
  2017f0:	17ffff93 	b	20163c <gicd_write_isenabler>
  2017f4:	79400261 	ldrh	w1, [x19]
  2017f8:	12002421 	and	w1, w1, #0x3ff
  2017fc:	71007c3f 	cmp	w1, #0x1f
  201800:	54000228 	b.hi	201844 <gicv2_secure_ppi_sgi_setup_props+0xe0>  // b.pmore
  201804:	110fc020 	add	w0, w1, #0x3f0
  201808:	12002400 	and	w0, w0, #0x3ff
  20180c:	71003c1f 	cmp	w0, #0xf
  201810:	540000a8 	b.hi	201824 <gicv2_secure_ppi_sgi_setup_props+0xc0>  // b.pmore
  201814:	39400a62 	ldrb	w2, [x19, #2]
  201818:	aa1403e0 	mov	x0, x20
  20181c:	d3441442 	ubfx	x2, x2, #4, #2
  201820:	97ffff5c 	bl	201590 <gicd_set_icfgr>
  201824:	79400261 	ldrh	w1, [x19]
  201828:	b9400262 	ldr	w2, [x19]
  20182c:	1ac122e0 	lsl	w0, w23, w1
  201830:	12002421 	and	w1, w1, #0x3ff
  201834:	2a0002d6 	orr	w22, w22, w0
  201838:	d34a4442 	ubfx	x2, x2, #10, #8
  20183c:	aa1403e0 	mov	x0, x20
  201840:	97ffff64 	bl	2015d0 <gicd_set_ipriorityr>
  201844:	91001273 	add	x19, x19, #0x4
  201848:	17ffffdd 	b	2017bc <gicv2_secure_ppi_sgi_setup_props+0x58>

000000000020184c <gicv2_secure_spis_configure_props>:
  20184c:	a9bd7bfd 	stp	x29, x30, [sp, #-48]!
  201850:	910003fd 	mov	x29, sp
  201854:	a90153f3 	stp	x19, x20, [sp, #16]
  201858:	aa0003f4 	mov	x20, x0
  20185c:	aa0103f3 	mov	x19, x1
  201860:	a9025bf5 	stp	x21, x22, [sp, #32]
  201864:	8b224835 	add	x21, x1, w2, uxtw #2
  201868:	91200016 	add	x22, x0, #0x800
  20186c:	eb15027f 	cmp	x19, x21
  201870:	540000a1 	b.ne	201884 <gicv2_secure_spis_configure_props+0x38>  // b.any
  201874:	a94153f3 	ldp	x19, x20, [sp, #16]
  201878:	a9425bf5 	ldp	x21, x22, [sp, #32]
  20187c:	a8c37bfd 	ldp	x29, x30, [sp], #48
  201880:	d65f03c0 	ret
  201884:	79400261 	ldrh	w1, [x19]
  201888:	12002421 	and	w1, w1, #0x3ff
  20188c:	71007c3f 	cmp	w1, #0x1f
  201890:	54000309 	b.ls	2018f0 <gicv2_secure_spis_configure_props+0xa4>  // b.plast
  201894:	aa1403e0 	mov	x0, x20
  201898:	97ffff28 	bl	201538 <gicd_clr_igroupr>
  20189c:	b9400262 	ldr	w2, [x19]
  2018a0:	aa1403e0 	mov	x0, x20
  2018a4:	79400261 	ldrh	w1, [x19]
  2018a8:	d34a4442 	ubfx	x2, x2, #10, #8
  2018ac:	12002421 	and	w1, w1, #0x3ff
  2018b0:	97ffff48 	bl	2015d0 <gicd_set_ipriorityr>
  2018b4:	79400260 	ldrh	w0, [x19]
  2018b8:	b94002c1 	ldr	w1, [x22]
  2018bc:	92402400 	and	x0, x0, #0x3ff
  2018c0:	12001c21 	and	w1, w1, #0xff
  2018c4:	38366801 	strb	w1, [x0, x22]
  2018c8:	aa1403e0 	mov	x0, x20
  2018cc:	39400a62 	ldrb	w2, [x19, #2]
  2018d0:	79400261 	ldrh	w1, [x19]
  2018d4:	d3441442 	ubfx	x2, x2, #4, #2
  2018d8:	12002421 	and	w1, w1, #0x3ff
  2018dc:	97ffff2d 	bl	201590 <gicd_set_icfgr>
  2018e0:	79400261 	ldrh	w1, [x19]
  2018e4:	aa1403e0 	mov	x0, x20
  2018e8:	12002421 	and	w1, w1, #0x3ff
  2018ec:	97ffff3e 	bl	2015e4 <gicd_set_isenabler>
  2018f0:	91001273 	add	x19, x19, #0x4
  2018f4:	17ffffde 	b	20186c <gicv2_secure_spis_configure_props+0x20>

00000000002018f8 <gicv2_spis_configure_defaults>:
  2018f8:	a9bd7bfd 	stp	x29, x30, [sp, #-48]!
  2018fc:	910003fd 	mov	x29, sp
  201900:	a90153f3 	stp	x19, x20, [sp, #16]
  201904:	aa0003f4 	mov	x20, x0
  201908:	b9400413 	ldr	w19, [x0, #4]
  20190c:	f90013f5 	str	x21, [sp, #32]
  201910:	52800415 	mov	w21, #0x20                  	// #32
  201914:	531b1273 	ubfiz	w19, w19, #5, #5
  201918:	11008273 	add	w19, w19, #0x20
  20191c:	6b1302bf 	cmp	w21, w19
  201920:	54000163 	b.cc	20194c <gicv2_spis_configure_defaults+0x54>  // b.lo, b.ul, b.last
  201924:	52800415 	mov	w21, #0x20                  	// #32
  201928:	6b1302bf 	cmp	w21, w19
  20192c:	540001c3 	b.cc	201964 <gicv2_spis_configure_defaults+0x6c>  // b.lo, b.ul, b.last
  201930:	52800415 	mov	w21, #0x20                  	// #32
  201934:	6b1302bf 	cmp	w21, w19
  201938:	54000223 	b.cc	20197c <gicv2_spis_configure_defaults+0x84>  // b.lo, b.ul, b.last
  20193c:	a94153f3 	ldp	x19, x20, [sp, #16]
  201940:	f94013f5 	ldr	x21, [sp, #32]
  201944:	a8c37bfd 	ldp	x29, x30, [sp], #48
  201948:	d65f03c0 	ret
  20194c:	2a1503e1 	mov	w1, w21
  201950:	aa1403e0 	mov	x0, x20
  201954:	12800002 	mov	w2, #0xffffffff            	// #-1
  201958:	110082b5 	add	w21, w21, #0x20
  20195c:	97ffff2f 	bl	201618 <gicd_write_igroupr>
  201960:	17ffffef 	b	20191c <gicv2_spis_configure_defaults+0x24>
  201964:	2a1503e1 	mov	w1, w21
  201968:	aa1403e0 	mov	x0, x20
  20196c:	3201c3e2 	mov	w2, #0x80808080            	// #-2139062144
  201970:	110012b5 	add	w21, w21, #0x4
  201974:	97ffff2e 	bl	20162c <gicd_write_ipriorityr>
  201978:	17ffffec 	b	201928 <gicv2_spis_configure_defaults+0x30>
  20197c:	2a1503e1 	mov	w1, w21
  201980:	aa1403e0 	mov	x0, x20
  201984:	52800002 	mov	w2, #0x0                   	// #0
  201988:	110042b5 	add	w21, w21, #0x10
  20198c:	97ffff1e 	bl	201604 <gicd_write_icfgr>
  201990:	17ffffe9 	b	201934 <gicv2_spis_configure_defaults+0x3c>

0000000000201994 <init_xlat_tables>:
  201994:	a9bf7bfd 	stp	x29, x30, [sp, #-16]!
  201998:	910003fd 	mov	x29, sp
  20199c:	94000a61 	bl	204320 <xlat_arch_current_el>
  2019a0:	2a0003e1 	mov	w1, w0
  2019a4:	7100041f 	cmp	w0, #0x1
  2019a8:	b0000020 	adrp	x0, 206000 <__RODATA_END__>
  2019ac:	9102a000 	add	x0, x0, #0xa8
  2019b0:	54000081 	b.ne	2019c0 <init_xlat_tables+0x2c>  // b.any
  2019b4:	b9005801 	str	w1, [x0, #88]
  2019b8:	a8c17bfd 	ldp	x29, x30, [sp], #16
  2019bc:	14000005 	b	2019d0 <init_xlat_tables_ctx>
  2019c0:	7100083f 	cmp	w1, #0x2
  2019c4:	52800062 	mov	w2, #0x3                   	// #3
  2019c8:	1a820021 	csel	w1, w1, w2, eq  // eq = none
  2019cc:	17fffffa 	b	2019b4 <init_xlat_tables+0x20>

00000000002019d0 <init_xlat_tables_ctx>:
  2019d0:	a9be7bfd 	stp	x29, x30, [sp, #-32]!
  2019d4:	910003fd 	mov	x29, sp
  2019d8:	a90153f3 	stp	x19, x20, [sp, #16]
  2019dc:	aa0003f3 	mov	x19, x0
  2019e0:	f9400814 	ldr	x20, [x0, #16]
  2019e4:	aa1403e0 	mov	x0, x20
  2019e8:	94000a8c 	bl	204418 <xlat_mmap_print>
  2019ec:	b9403a61 	ldr	w1, [x19, #56]
  2019f0:	d2800000 	mov	x0, #0x0                   	// #0
  2019f4:	6b00003f 	cmp	w1, w0
  2019f8:	540001a8 	b.hi	201a2c <init_xlat_tables_ctx+0x5c>  // b.pmore
  2019fc:	b9402a63 	ldr	w3, [x19, #40]
  201a00:	d2800000 	mov	x0, #0x0                   	// #0
  201a04:	6b00007f 	cmp	w3, w0
  201a08:	540001ac 	b.gt	201a3c <init_xlat_tables_ctx+0x6c>
  201a0c:	f9400a80 	ldr	x0, [x20, #16]
  201a10:	b5000280 	cbnz	x0, 201a60 <init_xlat_tables_ctx+0x90>
  201a14:	52800020 	mov	w0, #0x1                   	// #1
  201a18:	39015260 	strb	w0, [x19, #84]
  201a1c:	aa1303e0 	mov	x0, x19
  201a20:	a94153f3 	ldp	x19, x20, [sp, #16]
  201a24:	a8c27bfd 	ldp	x29, x30, [sp], #32
  201a28:	14000aed 	b	2045dc <xlat_tables_print>
  201a2c:	f9401a62 	ldr	x2, [x19, #48]
  201a30:	f820785f 	str	xzr, [x2, x0, lsl #3]
  201a34:	91000400 	add	x0, x0, #0x1
  201a38:	17ffffef 	b	2019f4 <init_xlat_tables_ctx+0x24>
  201a3c:	f9401262 	ldr	x2, [x19, #32]
  201a40:	d2800001 	mov	x1, #0x0                   	// #0
  201a44:	8b003042 	add	x2, x2, x0, lsl #12
  201a48:	f821785f 	str	xzr, [x2, x1, lsl #3]
  201a4c:	91000421 	add	x1, x1, #0x1
  201a50:	f108003f 	cmp	x1, #0x200
  201a54:	54ffffa1 	b.ne	201a48 <init_xlat_tables_ctx+0x78>  // b.any
  201a58:	91000400 	add	x0, x0, #0x1
  201a5c:	17ffffea 	b	201a04 <init_xlat_tables_ctx+0x34>
  201a60:	b9403a64 	ldr	w4, [x19, #56]
  201a64:	aa1403e1 	mov	x1, x20
  201a68:	b9405265 	ldr	w5, [x19, #80]
  201a6c:	d2800002 	mov	x2, #0x0                   	// #0
  201a70:	f9401a63 	ldr	x3, [x19, #48]
  201a74:	aa1303e0 	mov	x0, x19
  201a78:	94000a69 	bl	20441c <xlat_tables_map_region>
  201a7c:	a9408e81 	ldp	x1, x3, [x20, #8]
  201a80:	8b030022 	add	x2, x1, x3
  201a84:	d1000442 	sub	x2, x2, #0x1
  201a88:	eb00005f 	cmp	x2, x0
  201a8c:	54000100 	b.eq	201aac <init_xlat_tables_ctx+0xdc>  // b.none
  201a90:	b9401a84 	ldr	w4, [x20, #24]
  201a94:	90000020 	adrp	x0, 205000 <__TEXT_END__>
  201a98:	f9400282 	ldr	x2, [x20]
  201a9c:	911aec00 	add	x0, x0, #0x6bb
  201aa0:	940008af 	bl	203d5c <tf_log>
  201aa4:	97fffe0b 	bl	2012d0 <console_flush>
  201aa8:	97fffa4f 	bl	2003e4 <do_panic>
  201aac:	9100a294 	add	x20, x20, #0x28
  201ab0:	17ffffd7 	b	201a0c <init_xlat_tables_ctx+0x3c>

0000000000201ab4 <mdelay>:
  201ab4:	52807d01 	mov	w1, #0x3e8                 	// #1000
  201ab8:	1b017c00 	mul	w0, w0, w1
  201abc:	140008d0 	b	203dfc <udelay>

0000000000201ac0 <memcpy>:
  201ac0:	d2800003 	mov	x3, #0x0                   	// #0
  201ac4:	eb03005f 	cmp	x2, x3
  201ac8:	54000041 	b.ne	201ad0 <memcpy+0x10>  // b.any
  201acc:	d65f03c0 	ret
  201ad0:	38636824 	ldrb	w4, [x1, x3]
  201ad4:	38236804 	strb	w4, [x0, x3]
  201ad8:	91000463 	add	x3, x3, #0x1
  201adc:	17fffffa 	b	201ac4 <memcpy+0x4>

0000000000201ae0 <memmove>:
  201ae0:	cb010006 	sub	x6, x0, x1
  201ae4:	aa0003e5 	mov	x5, x0
  201ae8:	eb0200df 	cmp	x6, x2
  201aec:	54000043 	b.cc	201af4 <memmove+0x14>  // b.lo, b.ul, b.last
  201af0:	17fffff4 	b	201ac0 <memcpy>
  201af4:	8b020024 	add	x4, x1, x2
  201af8:	8b020000 	add	x0, x0, x2
  201afc:	eb05001f 	cmp	x0, x5
  201b00:	54000041 	b.ne	201b08 <memmove+0x28>  // b.any
  201b04:	d65f03c0 	ret
  201b08:	385ffc81 	ldrb	w1, [x4, #-1]!
  201b0c:	381ffc01 	strb	w1, [x0, #-1]!
  201b10:	17fffffb 	b	201afc <memmove+0x1c>

0000000000201b14 <memset>:
  201b14:	b4000342 	cbz	x2, 201b7c <memset+0x68>
  201b18:	12001c21 	and	w1, w1, #0xff
  201b1c:	aa0003e5 	mov	x5, x0
  201b20:	f24008a6 	ands	x6, x5, #0x7
  201b24:	54000261 	b.ne	201b70 <memset+0x5c>  // b.any
  201b28:	d3781c24 	ubfiz	x4, x1, #8, #8
  201b2c:	92401c23 	and	x3, x1, #0xff
  201b30:	aa030083 	orr	x3, x4, x3
  201b34:	d2800004 	mov	x4, #0x0                   	// #0
  201b38:	aa034063 	orr	x3, x3, x3, lsl #16
  201b3c:	aa038063 	orr	x3, x3, x3, lsl #32
  201b40:	cb040047 	sub	x7, x2, x4
  201b44:	f1001cff 	cmp	x7, #0x7
  201b48:	540001c8 	b.hi	201b80 <memset+0x6c>  // b.pmore
  201b4c:	d343fc43 	lsr	x3, x2, #3
  201b50:	928000e4 	mov	x4, #0xfffffffffffffff8    	// #-8
  201b54:	8b030ca5 	add	x5, x5, x3, lsl #3
  201b58:	9b040862 	madd	x2, x3, x4, x2
  201b5c:	eb06005f 	cmp	x2, x6
  201b60:	540000e0 	b.eq	201b7c <memset+0x68>  // b.none
  201b64:	382668a1 	strb	w1, [x5, x6]
  201b68:	910004c6 	add	x6, x6, #0x1
  201b6c:	17fffffc 	b	201b5c <memset+0x48>
  201b70:	380014a1 	strb	w1, [x5], #1
  201b74:	f1000442 	subs	x2, x2, #0x1
  201b78:	54fffd41 	b.ne	201b20 <memset+0xc>  // b.any
  201b7c:	d65f03c0 	ret
  201b80:	f82468a3 	str	x3, [x5, x4]
  201b84:	91002084 	add	x4, x4, #0x8
  201b88:	17ffffee 	b	201b40 <memset+0x2c>

0000000000201b8c <mmap_add>:
  201b8c:	aa0003e1 	mov	x1, x0
  201b90:	b0000020 	adrp	x0, 206000 <__RODATA_END__>
  201b94:	9102a000 	add	x0, x0, #0xa8
  201b98:	14000001 	b	201b9c <mmap_add_ctx>

0000000000201b9c <mmap_add_ctx>:
  201b9c:	a9be7bfd 	stp	x29, x30, [sp, #-32]!
  201ba0:	910003fd 	mov	x29, sp
  201ba4:	a90153f3 	stp	x19, x20, [sp, #16]
  201ba8:	aa0003f4 	mov	x20, x0
  201bac:	aa0103f3 	mov	x19, x1
  201bb0:	f9401260 	ldr	x0, [x19, #32]
  201bb4:	b5000080 	cbnz	x0, 201bc4 <mmap_add_ctx+0x28>
  201bb8:	a94153f3 	ldp	x19, x20, [sp, #16]
  201bbc:	a8c27bfd 	ldp	x29, x30, [sp], #32
  201bc0:	d65f03c0 	ret
  201bc4:	aa1303e1 	mov	x1, x19
  201bc8:	aa1403e0 	mov	x0, x20
  201bcc:	9100a273 	add	x19, x19, #0x28
  201bd0:	9400000f 	bl	201c0c <mmap_add_region_ctx>
  201bd4:	17fffff7 	b	201bb0 <mmap_add_ctx+0x14>

0000000000201bd8 <mmap_add_region>:
  201bd8:	a9bc7bfd 	stp	x29, x30, [sp, #-64]!
  201bdc:	910003fd 	mov	x29, sp
  201be0:	a90187e0 	stp	x0, x1, [sp, #24]
  201be4:	d2a80000 	mov	x0, #0x40000000            	// #1073741824
  201be8:	910063e1 	add	x1, sp, #0x18
  201bec:	f90017e2 	str	x2, [sp, #40]
  201bf0:	b90033e3 	str	w3, [sp, #48]
  201bf4:	f9001fe0 	str	x0, [sp, #56]
  201bf8:	b0000020 	adrp	x0, 206000 <__RODATA_END__>
  201bfc:	9102a000 	add	x0, x0, #0xa8
  201c00:	94000003 	bl	201c0c <mmap_add_region_ctx>
  201c04:	a8c47bfd 	ldp	x29, x30, [sp], #64
  201c08:	d65f03c0 	ret

0000000000201c0c <mmap_add_region_ctx>:
  201c0c:	a9bc7bfd 	stp	x29, x30, [sp, #-64]!
  201c10:	910003fd 	mov	x29, sp
  201c14:	a9025bf5 	stp	x21, x22, [sp, #32]
  201c18:	aa0103f6 	mov	x22, x1
  201c1c:	f9400821 	ldr	x1, [x1, #16]
  201c20:	a90153f3 	stp	x19, x20, [sp, #16]
  201c24:	f9001bf7 	str	x23, [sp, #48]
  201c28:	b4000941 	cbz	x1, 201d50 <mmap_add_region_ctx+0x144>
  201c2c:	aa0003f3 	mov	x19, x0
  201c30:	a94002c5 	ldp	x5, x0, [x22]
  201c34:	f94012c2 	ldr	x2, [x22, #32]
  201c38:	aa0100a3 	orr	x3, x5, x1
  201c3c:	aa000063 	orr	x3, x3, x0
  201c40:	f2402c7f 	tst	x3, #0xfff
  201c44:	54000d81 	b.ne	201df4 <mmap_add_region_ctx+0x1e8>  // b.any
  201c48:	f148005f 	cmp	x2, #0x200, lsl #12
  201c4c:	d2a80003 	mov	x3, #0x40000000            	// #1073741824
  201c50:	fa431044 	ccmp	x2, x3, #0x4, ne  // ne = any
  201c54:	54000060 	b.eq	201c60 <mmap_add_region_ctx+0x54>  // b.none
  201c58:	f140045f 	cmp	x2, #0x1, lsl #12
  201c5c:	54000cc1 	b.ne	201df4 <mmap_add_region_ctx+0x1e8>  // b.any
  201c60:	8b0100b5 	add	x21, x5, x1
  201c64:	8b00002a 	add	x10, x1, x0
  201c68:	d10006b5 	sub	x21, x21, #0x1
  201c6c:	d1000554 	sub	x20, x10, #0x1
  201c70:	eb1500bf 	cmp	x5, x21
  201c74:	fa549002 	ccmp	x0, x20, #0x2, ls  // ls = plast
  201c78:	54000ce8 	b.hi	201e14 <mmap_add_region_ctx+0x208>  // b.pmore
  201c7c:	f9400662 	ldr	x2, [x19, #8]
  201c80:	eb02029f 	cmp	x20, x2
  201c84:	54000c88 	b.hi	201e14 <mmap_add_region_ctx+0x208>  // b.pmore
  201c88:	f9400262 	ldr	x2, [x19]
  201c8c:	eb0202bf 	cmp	x21, x2
  201c90:	54000c28 	b.hi	201e14 <mmap_add_region_ctx+0x208>  // b.pmore
  201c94:	b9401a69 	ldr	w9, [x19, #24]
  201c98:	52800503 	mov	w3, #0x28                  	// #40
  201c9c:	f9400a62 	ldr	x2, [x19, #16]
  201ca0:	9b230929 	smaddl	x9, w9, w3, x2
  201ca4:	f85e8123 	ldur	x3, [x9, #-24]
  201ca8:	b5000ba3 	cbnz	x3, 201e1c <mmap_add_region_ctx+0x210>
  201cac:	aa0203e6 	mov	x6, x2
  201cb0:	cb05000b 	sub	x11, x0, x5
  201cb4:	f94008c3 	ldr	x3, [x6, #16]
  201cb8:	b5000563 	cbnz	x3, 201d64 <mmap_add_region_ctx+0x158>
  201cbc:	aa0203e3 	mov	x3, x2
  201cc0:	a9409464 	ldp	x4, x5, [x3, #8]
  201cc4:	aa0303e0 	mov	x0, x3
  201cc8:	9100a063 	add	x3, x3, #0x28
  201ccc:	8b0400a4 	add	x4, x5, x4
  201cd0:	d1000484 	sub	x4, x4, #0x1
  201cd4:	eb14009f 	cmp	x4, x20
  201cd8:	54000042 	b.cs	201ce0 <mmap_add_region_ctx+0xd4>  // b.hs, b.nlast
  201cdc:	b5ffff25 	cbnz	x5, 201cc0 <mmap_add_region_ctx+0xb4>
  201ce0:	a9408c04 	ldp	x4, x3, [x0, #8]
  201ce4:	aa0003f7 	mov	x23, x0
  201ce8:	9100a000 	add	x0, x0, #0x28
  201cec:	8b040064 	add	x4, x3, x4
  201cf0:	eb04015f 	cmp	x10, x4
  201cf4:	54000081 	b.ne	201d04 <mmap_add_region_ctx+0xf8>  // b.any
  201cf8:	b4000063 	cbz	x3, 201d04 <mmap_add_region_ctx+0xf8>
  201cfc:	eb03003f 	cmp	x1, x3
  201d00:	54ffff08 	b.hi	201ce0 <mmap_add_region_ctx+0xd4>  // b.pmore
  201d04:	f9400841 	ldr	x1, [x2, #16]
  201d08:	b4000061 	cbz	x1, 201d14 <mmap_add_region_ctx+0x108>
  201d0c:	eb09005f 	cmp	x2, x9
  201d10:	540008a3 	b.cc	201e24 <mmap_add_region_ctx+0x218>  // b.lo, b.ul, b.last
  201d14:	cb170042 	sub	x2, x2, x23
  201d18:	aa1703e1 	mov	x1, x23
  201d1c:	97ffff71 	bl	201ae0 <memmove>
  201d20:	aa1603e1 	mov	x1, x22
  201d24:	aa1703e0 	mov	x0, x23
  201d28:	d2800502 	mov	x2, #0x28                  	// #40
  201d2c:	97ffff65 	bl	201ac0 <memcpy>
  201d30:	f9402260 	ldr	x0, [x19, #64]
  201d34:	eb15001f 	cmp	x0, x21
  201d38:	54000042 	b.cs	201d40 <mmap_add_region_ctx+0x134>  // b.hs, b.nlast
  201d3c:	f9002275 	str	x21, [x19, #64]
  201d40:	f9402660 	ldr	x0, [x19, #72]
  201d44:	eb14001f 	cmp	x0, x20
  201d48:	54000042 	b.cs	201d50 <mmap_add_region_ctx+0x144>  // b.hs, b.nlast
  201d4c:	f9002674 	str	x20, [x19, #72]
  201d50:	a94153f3 	ldp	x19, x20, [sp, #16]
  201d54:	a9425bf5 	ldp	x21, x22, [sp, #32]
  201d58:	f9401bf7 	ldr	x23, [sp, #48]
  201d5c:	a8c47bfd 	ldp	x29, x30, [sp], #64
  201d60:	d65f03c0 	ret
  201d64:	a94010c7 	ldp	x7, x4, [x6]
  201d68:	8b030088 	add	x8, x4, x3
  201d6c:	eb04001f 	cmp	x0, x4
  201d70:	d1000508 	sub	x8, x8, #0x1
  201d74:	54000263 	b.cc	201dc0 <mmap_add_region_ctx+0x1b4>  // b.lo, b.ul, b.last
  201d78:	eb08029f 	cmp	x20, x8
  201d7c:	54000269 	b.ls	201dc8 <mmap_add_region_ctx+0x1bc>  // b.plast
  201d80:	eb04001f 	cmp	x0, x4
  201d84:	54000220 	b.eq	201dc8 <mmap_add_region_ctx+0x1bc>  // b.none
  201d88:	eb0702bf 	cmp	x21, x7
  201d8c:	54000503 	b.cc	201e2c <mmap_add_region_ctx+0x220>  // b.lo, b.ul, b.last
  201d90:	8b070063 	add	x3, x3, x7
  201d94:	d1000463 	sub	x3, x3, #0x1
  201d98:	eb0300bf 	cmp	x5, x3
  201d9c:	1a9f97e3 	cset	w3, hi  // hi = pmore
  201da0:	eb04029f 	cmp	x20, x4
  201da4:	54000243 	b.cc	201dec <mmap_add_region_ctx+0x1e0>  // b.lo, b.ul, b.last
  201da8:	eb08001f 	cmp	x0, x8
  201dac:	1a9f97e4 	cset	w4, hi  // hi = pmore
  201db0:	6a03009f 	tst	w4, w3
  201db4:	54000180 	b.eq	201de4 <mmap_add_region_ctx+0x1d8>  // b.none
  201db8:	9100a0c6 	add	x6, x6, #0x28
  201dbc:	17ffffbe 	b	201cb4 <mmap_add_region_ctx+0xa8>
  201dc0:	eb08029f 	cmp	x20, x8
  201dc4:	54fffe23 	b.cc	201d88 <mmap_add_region_ctx+0x17c>  // b.lo, b.ul, b.last
  201dc8:	cb070087 	sub	x7, x4, x7
  201dcc:	eb0b00ff 	cmp	x7, x11
  201dd0:	540000a1 	b.ne	201de4 <mmap_add_region_ctx+0x1d8>  // b.any
  201dd4:	eb04001f 	cmp	x0, x4
  201dd8:	54ffff01 	b.ne	201db8 <mmap_add_region_ctx+0x1ac>  // b.any
  201ddc:	eb03003f 	cmp	x1, x3
  201de0:	54fffec1 	b.ne	201db8 <mmap_add_region_ctx+0x1ac>  // b.any
  201de4:	12800001 	mov	w1, #0xffffffff            	// #-1
  201de8:	14000004 	b	201df8 <mmap_add_region_ctx+0x1ec>
  201dec:	52800024 	mov	w4, #0x1                   	// #1
  201df0:	17fffff0 	b	201db0 <mmap_add_region_ctx+0x1a4>
  201df4:	128002a1 	mov	w1, #0xffffffea            	// #-22
  201df8:	a94153f3 	ldp	x19, x20, [sp, #16]
  201dfc:	90000020 	adrp	x0, 205000 <__TEXT_END__>
  201e00:	a9425bf5 	ldp	x21, x22, [sp, #32]
  201e04:	911a4000 	add	x0, x0, #0x690
  201e08:	f9401bf7 	ldr	x23, [sp, #48]
  201e0c:	a8c47bfd 	ldp	x29, x30, [sp], #64
  201e10:	140007d3 	b	203d5c <tf_log>
  201e14:	12800421 	mov	w1, #0xffffffde            	// #-34
  201e18:	17fffff8 	b	201df8 <mmap_add_region_ctx+0x1ec>
  201e1c:	12800161 	mov	w1, #0xfffffff4            	// #-12
  201e20:	17fffff6 	b	201df8 <mmap_add_region_ctx+0x1ec>
  201e24:	9100a042 	add	x2, x2, #0x28
  201e28:	17ffffb7 	b	201d04 <mmap_add_region_ctx+0xf8>
  201e2c:	eb04029f 	cmp	x20, x4
  201e30:	54fffc43 	b.cc	201db8 <mmap_add_region_ctx+0x1ac>  // b.lo, b.ul, b.last
  201e34:	52800023 	mov	w3, #0x1                   	// #1
  201e38:	17ffffdc 	b	201da8 <mmap_add_region_ctx+0x19c>

0000000000201e3c <plat_arm_set_twedel_scr_el3>:
  201e3c:	12800000 	mov	w0, #0xffffffff            	// #-1
  201e40:	d65f03c0 	ret

0000000000201e44 <plat_core_pos_by_mpidr>:
  201e44:	53083c00 	ubfx	w0, w0, #8, #8
  201e48:	d65f03c0 	ret

0000000000201e4c <plat_ea_handler>:
  201e4c:	a9be7bfd 	stp	x29, x30, [sp, #-32]!
  201e50:	910003fd 	mov	x29, sp
  201e54:	a90153f3 	stp	x19, x20, [sp, #16]
  201e58:	2a0003f3 	mov	w19, w0
  201e5c:	aa0103f4 	mov	x20, x1
  201e60:	d53e4003 	mrs	x3, spsr_el3
  201e64:	53020c63 	ubfx	w3, w3, #2, #2
  201e68:	d53800a1 	mrs	x1, mpidr_el1
  201e6c:	71000c7f 	cmp	w3, #0x3
  201e70:	54000220 	b.eq	201eb4 <plat_ea_handler+0x68>  // b.none
  201e74:	7100087f 	cmp	w3, #0x2
  201e78:	90000020 	adrp	x0, 205000 <__TEXT_END__>
  201e7c:	90000022 	adrp	x2, 205000 <__TEXT_END__>
  201e80:	9118c400 	add	x0, x0, #0x631
  201e84:	9118ac42 	add	x2, x2, #0x62b
  201e88:	9a801042 	csel	x2, x2, x0, ne  // ne = any
  201e8c:	90000020 	adrp	x0, 205000 <__TEXT_END__>
  201e90:	9118d400 	add	x0, x0, #0x635
  201e94:	940007b2 	bl	203d5c <tf_log>
  201e98:	aa1403e2 	mov	x2, x20
  201e9c:	2a1303e1 	mov	w1, w19
  201ea0:	90000020 	adrp	x0, 205000 <__TEXT_END__>
  201ea4:	9119a800 	add	x0, x0, #0x66a
  201ea8:	940007ad 	bl	203d5c <tf_log>
  201eac:	97fffd09 	bl	2012d0 <console_flush>
  201eb0:	97fff94d 	bl	2003e4 <do_panic>
  201eb4:	90000022 	adrp	x2, 205000 <__TEXT_END__>
  201eb8:	91189c42 	add	x2, x2, #0x627
  201ebc:	17fffff4 	b	201e8c <plat_ea_handler+0x40>

0000000000201ec0 <plat_get_ns_image_entrypoint>:
  201ec0:	d29ffe80 	mov	x0, #0xfff4                	// #65524
  201ec4:	d2800801 	mov	x1, #0x40                  	// #64
  201ec8:	f2bf4460 	movk	x0, #0xfa23, lsl #16
  201ecc:	f2a00601 	movk	x1, #0x30, lsl #16
  201ed0:	b9400000 	ldr	w0, [x0]
  201ed4:	2a0003e0 	mov	w0, w0
  201ed8:	f100001f 	cmp	x0, #0x0
  201edc:	9a811000 	csel	x0, x0, x1, ne  // ne = any
  201ee0:	d65f03c0 	ret

0000000000201ee4 <plat_get_power_domain_tree_desc>:
  201ee4:	90000020 	adrp	x0, 205000 <__TEXT_END__>
  201ee8:	9113a400 	add	x0, x0, #0x4e9
  201eec:	d65f03c0 	ret

0000000000201ef0 <plat_get_soc_revision>:
  201ef0:	12800000 	mov	w0, #0xffffffff            	// #-1
  201ef4:	d65f03c0 	ret

0000000000201ef8 <plat_get_soc_version>:
  201ef8:	12800000 	mov	w0, #0xffffffff            	// #-1
  201efc:	d65f03c0 	ret

0000000000201f00 <plat_get_syscnt_freq2>:
  201f00:	529f9800 	mov	w0, #0xfcc0                	// #64704
  201f04:	72a03360 	movk	w0, #0x19b, lsl #16
  201f08:	d65f03c0 	ret

0000000000201f0c <plat_get_target_pwr_state>:
  201f0c:	d2800003 	mov	x3, #0x0                   	// #0
  201f10:	52800040 	mov	w0, #0x2                   	// #2
  201f14:	38636824 	ldrb	w4, [x1, x3]
  201f18:	91000463 	add	x3, x3, #0x1
  201f1c:	6b00009f 	cmp	w4, w0
  201f20:	1a809080 	csel	w0, w4, w0, ls  // ls = plast
  201f24:	6b03005f 	cmp	w2, w3
  201f28:	12001c00 	and	w0, w0, #0xff
  201f2c:	54ffff41 	b.ne	201f14 <plat_get_target_pwr_state+0x8>  // b.any
  201f30:	d65f03c0 	ret

0000000000201f34 <plat_ic_get_pending_interrupt_type>:
  201f34:	a9bf7bfd 	stp	x29, x30, [sp, #-16]!
  201f38:	910003fd 	mov	x29, sp
  201f3c:	97fffdf2 	bl	201704 <gicv2_get_pending_interrupt_type>
  201f40:	710ff41f 	cmp	w0, #0x3fd
  201f44:	540000c9 	b.ls	201f5c <plat_ic_get_pending_interrupt_type+0x28>  // b.plast
  201f48:	710ffc1f 	cmp	w0, #0x3ff
  201f4c:	1a9f17e0 	cset	w0, eq  // eq = none
  201f50:	11000800 	add	w0, w0, #0x2
  201f54:	a8c17bfd 	ldp	x29, x30, [sp], #16
  201f58:	d65f03c0 	ret
  201f5c:	52800000 	mov	w0, #0x0                   	// #0
  201f60:	17fffffd 	b	201f54 <plat_ic_get_pending_interrupt_type+0x20>

0000000000201f64 <plat_is_smccc_feature_available>:
  201f64:	12800000 	mov	w0, #0xffffffff            	// #-1
  201f68:	d65f03c0 	ret

0000000000201f6c <plat_log_get_prefix>:
  201f6c:	7100c81f 	cmp	w0, #0x32
  201f70:	52800641 	mov	w1, #0x32                  	// #50
  201f74:	1a819000 	csel	w0, w0, w1, ls  // ls = plast
  201f78:	52800141 	mov	w1, #0xa                   	// #10
  201f7c:	6b01001f 	cmp	w0, w1
  201f80:	1a812000 	csel	w0, w0, w1, cs  // cs = hs, nlast
  201f84:	1ac10800 	udiv	w0, w0, w1
  201f88:	90000021 	adrp	x1, 205000 <__TEXT_END__>
  201f8c:	91016021 	add	x1, x1, #0x58
  201f90:	51000400 	sub	w0, w0, #0x1
  201f94:	f8607820 	ldr	x0, [x1, x0, lsl #3]
  201f98:	d65f03c0 	ret

0000000000201f9c <plat_setup_psci_ops>:
  201f9c:	a9be7bfd 	stp	x29, x30, [sp, #-32]!
  201fa0:	90000020 	adrp	x0, 205000 <__TEXT_END__>
  201fa4:	91145400 	add	x0, x0, #0x515
  201fa8:	910003fd 	mov	x29, sp
  201fac:	f9000bf3 	str	x19, [sp, #16]
  201fb0:	aa0103f3 	mov	x19, x1
  201fb4:	90000021 	adrp	x1, 205000 <__TEXT_END__>
  201fb8:	9114f821 	add	x1, x1, #0x53e
  201fbc:	94000768 	bl	203d5c <tf_log>
  201fc0:	b0000020 	adrp	x0, 206000 <__RODATA_END__>
  201fc4:	91000000 	add	x0, x0, #0x0
  201fc8:	f9000260 	str	x0, [x19]
  201fcc:	52800000 	mov	w0, #0x0                   	// #0
  201fd0:	f9400bf3 	ldr	x19, [sp, #16]
  201fd4:	a8c27bfd 	ldp	x29, x30, [sp], #32
  201fd8:	d65f03c0 	ret

0000000000201fdc <print_entry_point_info>:
  201fdc:	a9be7bfd 	stp	x29, x30, [sp, #-32]!
  201fe0:	910003fd 	mov	x29, sp
  201fe4:	f9000bf3 	str	x19, [sp, #16]
  201fe8:	aa0003f3 	mov	x19, x0
  201fec:	90000020 	adrp	x0, 205000 <__TEXT_END__>
  201ff0:	91172400 	add	x0, x0, #0x5c9
  201ff4:	f9400661 	ldr	x1, [x19, #8]
  201ff8:	94000759 	bl	203d5c <tf_log>
  201ffc:	b9401261 	ldr	w1, [x19, #16]
  202000:	f0000000 	adrp	x0, 205000 <__TEXT_END__>
  202004:	f9400bf3 	ldr	x19, [sp, #16]
  202008:	91179c00 	add	x0, x0, #0x5e7
  20200c:	a8c27bfd 	ldp	x29, x30, [sp], #32
  202010:	14000753 	b	203d5c <tf_log>

0000000000202014 <psci_acquire_pwr_domain_locks>:
  202014:	a9bc7bfd 	stp	x29, x30, [sp, #-64]!
  202018:	910003fd 	mov	x29, sp
  20201c:	a90153f3 	stp	x19, x20, [sp, #16]
  202020:	2a0003f4 	mov	w20, w0
  202024:	52800033 	mov	w19, #0x1                   	// #1
  202028:	a9025bf5 	stp	x21, x22, [sp, #32]
  20202c:	d0000036 	adrp	x22, 208000 <__STACKS_START__+0x1e80>
  202030:	aa0103f5 	mov	x21, x1
  202034:	913d22d6 	add	x22, x22, #0xf48
  202038:	f9001bf7 	str	x23, [sp, #48]
  20203c:	d0000037 	adrp	x23, 208000 <__STACKS_START__+0x1e80>
  202040:	913d42f7 	add	x23, x23, #0xf50
  202044:	6b14027f 	cmp	w19, w20
  202048:	540000c9 	b.ls	202060 <psci_acquire_pwr_domain_locks+0x4c>  // b.plast
  20204c:	a94153f3 	ldp	x19, x20, [sp, #16]
  202050:	a9425bf5 	ldp	x21, x22, [sp, #32]
  202054:	f9401bf7 	ldr	x23, [sp, #48]
  202058:	a8c47bfd 	ldp	x29, x30, [sp], #64
  20205c:	d65f03c0 	ret
  202060:	51000660 	sub	w0, w19, #0x1
  202064:	11000673 	add	w19, w19, #0x1
  202068:	b8607aa0 	ldr	w0, [x21, x0, lsl #2]
  20206c:	8b0012e0 	add	x0, x23, x0, lsl #4
  202070:	39403800 	ldrb	w0, [x0, #14]
  202074:	8b000ac0 	add	x0, x22, x0, lsl #2
  202078:	97fffabc 	bl	200b68 <spin_lock>
  20207c:	17fffff2 	b	202044 <psci_acquire_pwr_domain_locks+0x30>

0000000000202080 <psci_affinity_info>:
  202080:	340000e1 	cbz	w1, 20209c <psci_affinity_info+0x1c>
  202084:	12800020 	mov	w0, #0xfffffffe            	// #-2
  202088:	d65f03c0 	ret
  20208c:	12800020 	mov	w0, #0xfffffffe            	// #-2
  202090:	f9400bf3 	ldr	x19, [sp, #16]
  202094:	a8c27bfd 	ldp	x29, x30, [sp], #32
  202098:	d65f03c0 	ret
  20209c:	a9be7bfd 	stp	x29, x30, [sp, #-32]!
  2020a0:	910003fd 	mov	x29, sp
  2020a4:	f9000bf3 	str	x19, [sp, #16]
  2020a8:	97ffff67 	bl	201e44 <plat_core_pos_by_mpidr>
  2020ac:	2a0003f3 	mov	w19, w0
  2020b0:	3100041f 	cmn	w0, #0x1
  2020b4:	54fffec0 	b.eq	20208c <psci_affinity_info+0xc>  // b.none
  2020b8:	97fff88d 	bl	2002ec <_cpu_data_by_index>
  2020bc:	91006000 	add	x0, x0, #0x18
  2020c0:	d2800081 	mov	x1, #0x4                   	// #4
  2020c4:	97fff962 	bl	20064c <flush_dcache_range>
  2020c8:	2a1303e0 	mov	w0, w19
  2020cc:	97fff888 	bl	2002ec <_cpu_data_by_index>
  2020d0:	b9401800 	ldr	w0, [x0, #24]
  2020d4:	17ffffef 	b	202090 <psci_affinity_info+0x10>

00000000002020d8 <psci_arch_setup>:
  2020d8:	a9bf7bfd 	stp	x29, x30, [sp, #-16]!
  2020dc:	910003fd 	mov	x29, sp
  2020e0:	97ffff88 	bl	201f00 <plat_get_syscnt_freq2>
  2020e4:	2a0003e0 	mov	w0, w0
  2020e8:	d51be000 	msr	cntfrq_el0, x0
  2020ec:	a8c17bfd 	ldp	x29, x30, [sp], #16
  2020f0:	17fff97a 	b	2006d8 <init_cpu_ops>

00000000002020f4 <psci_cpu_off>:
  2020f4:	52800040 	mov	w0, #0x2                   	// #2
  2020f8:	1400016a 	b	2026a0 <psci_do_cpu_off>

00000000002020fc <psci_cpu_on>:
  2020fc:	a9b77bfd 	stp	x29, x30, [sp, #-144]!
  202100:	910003fd 	mov	x29, sp
  202104:	a90153f3 	stp	x19, x20, [sp, #16]
  202108:	aa0003f3 	mov	x19, x0
  20210c:	aa0103f4 	mov	x20, x1
  202110:	f90013f5 	str	x21, [sp, #32]
  202114:	aa0203f5 	mov	x21, x2
  202118:	9400056d 	bl	2036cc <psci_validate_mpidr>
  20211c:	350001a0 	cbnz	w0, 202150 <psci_cpu_on+0x54>
  202120:	aa1503e2 	mov	x2, x21
  202124:	aa1403e1 	mov	x1, x20
  202128:	9100e3e0 	add	x0, sp, #0x38
  20212c:	9400052b 	bl	2035d8 <psci_validate_entry_point>
  202130:	35000080 	cbnz	w0, 202140 <psci_cpu_on+0x44>
  202134:	9100e3e1 	add	x1, sp, #0x38
  202138:	aa1303e0 	mov	x0, x19
  20213c:	9400003c 	bl	20222c <psci_cpu_on_start>
  202140:	a94153f3 	ldp	x19, x20, [sp, #16]
  202144:	f94013f5 	ldr	x21, [sp, #32]
  202148:	a8c97bfd 	ldp	x29, x30, [sp], #144
  20214c:	d65f03c0 	ret
  202150:	12800020 	mov	w0, #0xfffffffe            	// #-2
  202154:	17fffffb 	b	202140 <psci_cpu_on+0x44>

0000000000202158 <psci_cpu_on_finish>:
  202158:	a9bd7bfd 	stp	x29, x30, [sp, #-48]!
  20215c:	910003fd 	mov	x29, sp
  202160:	a9025bf5 	stp	x21, x22, [sp, #32]
  202164:	d0000035 	adrp	x21, 208000 <__STACKS_START__+0x1e80>
  202168:	a90153f3 	stp	x19, x20, [sp, #16]
  20216c:	2a0003f3 	mov	w19, w0
  202170:	aa0103f4 	mov	x20, x1
  202174:	f945e6a0 	ldr	x0, [x21, #3016]
  202178:	f9401401 	ldr	x1, [x0, #40]
  20217c:	aa1403e0 	mov	x0, x20
  202180:	d63f0020 	blr	x1
  202184:	f945e6a0 	ldr	x0, [x21, #3016]
  202188:	f9401801 	ldr	x1, [x0, #48]
  20218c:	b4000061 	cbz	x1, 202198 <psci_cpu_on_finish+0x40>
  202190:	aa1403e0 	mov	x0, x20
  202194:	d63f0020 	blr	x1
  202198:	d2800194 	mov	x20, #0xc                   	// #12
  20219c:	d0000035 	adrp	x21, 208000 <__STACKS_START__+0x1e80>
  2021a0:	8b335294 	add	x20, x20, w19, uxtw #4
  2021a4:	912e22b5 	add	x21, x21, #0xb88
  2021a8:	8b150294 	add	x20, x20, x21
  2021ac:	97ffffcb 	bl	2020d8 <psci_arch_setup>
  2021b0:	aa1403e0 	mov	x0, x20
  2021b4:	97fffa6d 	bl	200b68 <spin_lock>
  2021b8:	aa1403e0 	mov	x0, x20
  2021bc:	97fffa73 	bl	200b88 <spin_unlock>
  2021c0:	d0000020 	adrp	x0, 208000 <__STACKS_START__+0x1e80>
  2021c4:	f945e800 	ldr	x0, [x0, #3024]
  2021c8:	b40000a0 	cbz	x0, 2021dc <psci_cpu_on_finish+0x84>
  2021cc:	f9400c01 	ldr	x1, [x0, #24]
  2021d0:	b4000061 	cbz	x1, 2021dc <psci_cpu_on_finish+0x84>
  2021d4:	d2800000 	mov	x0, #0x0                   	// #0
  2021d8:	d63f0020 	blr	x1
  2021dc:	f0000014 	adrp	x20, 205000 <__TEXT_END__>
  2021e0:	f0000016 	adrp	x22, 205000 <__TEXT_END__>
  2021e4:	911e6294 	add	x20, x20, #0x798
  2021e8:	911e62d6 	add	x22, x22, #0x798
  2021ec:	eb16029f 	cmp	x20, x22
  2021f0:	54000163 	b.cc	20221c <psci_cpu_on_finish+0xc4>  // b.lo, b.ul, b.last
  2021f4:	d53800a1 	mrs	x1, mpidr_el1
  2021f8:	d37c7e73 	ubfiz	x19, x19, #4, #32
  2021fc:	92409c21 	and	x1, x1, #0xffffffffff
  202200:	9260dc21 	and	x1, x1, #0xffffffff00ffffff
  202204:	52800020 	mov	w0, #0x1                   	// #1
  202208:	f8336aa1 	str	x1, [x21, x19]
  20220c:	a94153f3 	ldp	x19, x20, [sp, #16]
  202210:	a9425bf5 	ldp	x21, x22, [sp, #32]
  202214:	a8c37bfd 	ldp	x29, x30, [sp], #48
  202218:	17fffb83 	b	201024 <cm_prepare_el3_exit>
  20221c:	f8408681 	ldr	x1, [x20], #8
  202220:	d2800000 	mov	x0, #0x0                   	// #0
  202224:	d63f0020 	blr	x1
  202228:	17fffff1 	b	2021ec <psci_cpu_on_finish+0x94>

000000000020222c <psci_cpu_on_start>:
  20222c:	a9bc7bfd 	stp	x29, x30, [sp, #-64]!
  202230:	910003fd 	mov	x29, sp
  202234:	a90153f3 	stp	x19, x20, [sp, #16]
  202238:	aa0003f4 	mov	x20, x0
  20223c:	a9025bf5 	stp	x21, x22, [sp, #32]
  202240:	aa0103f6 	mov	x22, x1
  202244:	d2800195 	mov	x21, #0xc                   	// #12
  202248:	f9001bf7 	str	x23, [sp, #48]
  20224c:	97fffefe 	bl	201e44 <plat_core_pos_by_mpidr>
  202250:	d0000022 	adrp	x2, 208000 <__STACKS_START__+0x1e80>
  202254:	912e2042 	add	x2, x2, #0xb88
  202258:	8b2052b5 	add	x21, x21, w0, uxtw #4
  20225c:	2a0003f3 	mov	w19, w0
  202260:	8b0202b5 	add	x21, x21, x2
  202264:	aa1503e0 	mov	x0, x21
  202268:	97fffa40 	bl	200b68 <spin_lock>
  20226c:	2a1303e0 	mov	w0, w19
  202270:	97fff81f 	bl	2002ec <_cpu_data_by_index>
  202274:	d2800081 	mov	x1, #0x4                   	// #4
  202278:	91006000 	add	x0, x0, #0x18
  20227c:	97fff8f4 	bl	20064c <flush_dcache_range>
  202280:	2a1303e0 	mov	w0, w19
  202284:	97fff81a 	bl	2002ec <_cpu_data_by_index>
  202288:	b9401800 	ldr	w0, [x0, #24]
  20228c:	34000780 	cbz	w0, 20237c <psci_cpu_on_start+0x150>
  202290:	7100081f 	cmp	w0, #0x2
  202294:	54000780 	b.eq	202384 <psci_cpu_on_start+0x158>  // b.none
  202298:	d0000020 	adrp	x0, 208000 <__STACKS_START__+0x1e80>
  20229c:	f945e800 	ldr	x0, [x0, #3024]
  2022a0:	b40000a0 	cbz	x0, 2022b4 <psci_cpu_on_start+0x88>
  2022a4:	f9400001 	ldr	x1, [x0]
  2022a8:	b4000061 	cbz	x1, 2022b4 <psci_cpu_on_start+0x88>
  2022ac:	aa1403e0 	mov	x0, x20
  2022b0:	d63f0020 	blr	x1
  2022b4:	52800057 	mov	w23, #0x2                   	// #2
  2022b8:	2a1303e0 	mov	w0, w19
  2022bc:	97fff80c 	bl	2002ec <_cpu_data_by_index>
  2022c0:	b9001817 	str	w23, [x0, #24]
  2022c4:	2a1303e0 	mov	w0, w19
  2022c8:	97fff809 	bl	2002ec <_cpu_data_by_index>
  2022cc:	91006000 	add	x0, x0, #0x18
  2022d0:	d2800081 	mov	x1, #0x4                   	// #4
  2022d4:	97fff8de 	bl	20064c <flush_dcache_range>
  2022d8:	2a1303e0 	mov	w0, w19
  2022dc:	97fff804 	bl	2002ec <_cpu_data_by_index>
  2022e0:	b9401800 	ldr	w0, [x0, #24]
  2022e4:	6b17001f 	cmp	w0, w23
  2022e8:	54000120 	b.eq	20230c <psci_cpu_on_start+0xe0>  // b.none
  2022ec:	2a1303e0 	mov	w0, w19
  2022f0:	97fff7ff 	bl	2002ec <_cpu_data_by_index>
  2022f4:	b9001817 	str	w23, [x0, #24]
  2022f8:	2a1303e0 	mov	w0, w19
  2022fc:	97fff7fc 	bl	2002ec <_cpu_data_by_index>
  202300:	91006000 	add	x0, x0, #0x18
  202304:	d2800081 	mov	x1, #0x4                   	// #4
  202308:	97fff8d1 	bl	20064c <flush_dcache_range>
  20230c:	d0000020 	adrp	x0, 208000 <__STACKS_START__+0x1e80>
  202310:	f945e400 	ldr	x0, [x0, #3016]
  202314:	f9400401 	ldr	x1, [x0, #8]
  202318:	aa1403e0 	mov	x0, x20
  20231c:	d63f0020 	blr	x1
  202320:	2a0003f4 	mov	w20, w0
  202324:	35000180 	cbnz	w0, 202354 <psci_cpu_on_start+0x128>
  202328:	aa1603e1 	mov	x1, x22
  20232c:	2a1303e0 	mov	w0, w19
  202330:	97fffb27 	bl	200fcc <cm_init_context_by_index>
  202334:	aa1503e0 	mov	x0, x21
  202338:	97fffa14 	bl	200b88 <spin_unlock>
  20233c:	2a1403e0 	mov	w0, w20
  202340:	a94153f3 	ldp	x19, x20, [sp, #16]
  202344:	a9425bf5 	ldp	x21, x22, [sp, #32]
  202348:	f9401bf7 	ldr	x23, [sp, #48]
  20234c:	a8c47bfd 	ldp	x29, x30, [sp], #64
  202350:	d65f03c0 	ret
  202354:	2a1303e0 	mov	w0, w19
  202358:	97fff7e5 	bl	2002ec <_cpu_data_by_index>
  20235c:	52800021 	mov	w1, #0x1                   	// #1
  202360:	b9001801 	str	w1, [x0, #24]
  202364:	2a1303e0 	mov	w0, w19
  202368:	97fff7e1 	bl	2002ec <_cpu_data_by_index>
  20236c:	91006000 	add	x0, x0, #0x18
  202370:	d2800081 	mov	x1, #0x4                   	// #4
  202374:	97fff8b6 	bl	20064c <flush_dcache_range>
  202378:	17ffffef 	b	202334 <psci_cpu_on_start+0x108>
  20237c:	12800074 	mov	w20, #0xfffffffc            	// #-4
  202380:	17ffffed 	b	202334 <psci_cpu_on_start+0x108>
  202384:	12800094 	mov	w20, #0xfffffffb            	// #-5
  202388:	17ffffeb 	b	202334 <psci_cpu_on_start+0x108>

000000000020238c <psci_cpu_suspend>:
  20238c:	a9b67bfd 	stp	x29, x30, [sp, #-160]!
  202390:	910003fd 	mov	x29, sp
  202394:	a90153f3 	stp	x19, x20, [sp, #16]
  202398:	2a0003f3 	mov	w19, w0
  20239c:	a9025bf5 	stp	x21, x22, [sp, #32]
  2023a0:	aa0103f6 	mov	x22, x1
  2023a4:	910103e1 	add	x1, sp, #0x40
  2023a8:	f9001bf7 	str	x23, [sp, #48]
  2023ac:	aa0203f7 	mov	x23, x2
  2023b0:	790083ff 	strh	wzr, [sp, #64]
  2023b4:	39010bff 	strb	wzr, [sp, #66]
  2023b8:	940004cd 	bl	2036ec <psci_validate_power_state>
  2023bc:	2a0003f4 	mov	w20, w0
  2023c0:	35000300 	cbnz	w0, 202420 <psci_cpu_suspend+0x94>
  2023c4:	910103e0 	add	x0, sp, #0x40
  2023c8:	d3504273 	ubfx	x19, x19, #16, #1
  2023cc:	94000181 	bl	2029d0 <psci_find_target_suspend_lvl>
  2023d0:	2a0003f5 	mov	w21, w0
  2023d4:	71000c1f 	cmp	w0, #0x3
  2023d8:	540000c1 	b.ne	2023f0 <psci_cpu_suspend+0x64>  // b.any
  2023dc:	f0000000 	adrp	x0, 205000 <__TEXT_END__>
  2023e0:	91108000 	add	x0, x0, #0x420
  2023e4:	9400065e 	bl	203d5c <tf_log>
  2023e8:	97fffbba 	bl	2012d0 <console_flush>
  2023ec:	97fff7fe 	bl	2003e4 <do_panic>
  2023f0:	2a000260 	orr	w0, w19, w0
  2023f4:	35000220 	cbnz	w0, 202438 <psci_cpu_suspend+0xac>
  2023f8:	d0000020 	adrp	x0, 208000 <__STACKS_START__+0x1e80>
  2023fc:	f945e400 	ldr	x0, [x0, #3016]
  202400:	f9400001 	ldr	x1, [x0]
  202404:	b4000361 	cbz	x1, 202470 <psci_cpu_suspend+0xe4>
  202408:	394103e0 	ldrb	w0, [sp, #64]
  20240c:	d53ed042 	mrs	x2, tpidr_el3
  202410:	39008040 	strb	w0, [x2, #32]
  202414:	d63f0020 	blr	x1
  202418:	d53ed040 	mrs	x0, tpidr_el3
  20241c:	3900801f 	strb	wzr, [x0, #32]
  202420:	2a1403e0 	mov	w0, w20
  202424:	a94153f3 	ldp	x19, x20, [sp, #16]
  202428:	a9425bf5 	ldp	x21, x22, [sp, #32]
  20242c:	f9401bf7 	ldr	x23, [sp, #48]
  202430:	a8ca7bfd 	ldp	x29, x30, [sp], #160
  202434:	d65f03c0 	ret
  202438:	350000f3 	cbnz	w19, 202454 <psci_cpu_suspend+0xc8>
  20243c:	2a1303e3 	mov	w3, w19
  202440:	910103e2 	add	x2, sp, #0x40
  202444:	2a1503e1 	mov	w1, w21
  202448:	910123e0 	add	x0, sp, #0x48
  20244c:	94000033 	bl	202518 <psci_cpu_suspend_start>
  202450:	17fffff4 	b	202420 <psci_cpu_suspend+0x94>
  202454:	aa1703e2 	mov	x2, x23
  202458:	aa1603e1 	mov	x1, x22
  20245c:	910123e0 	add	x0, sp, #0x48
  202460:	9400045e 	bl	2035d8 <psci_validate_entry_point>
  202464:	34fffec0 	cbz	w0, 20243c <psci_cpu_suspend+0xb0>
  202468:	2a0003f4 	mov	w20, w0
  20246c:	17ffffed 	b	202420 <psci_cpu_suspend+0x94>
  202470:	12800034 	mov	w20, #0xfffffffe            	// #-2
  202474:	17ffffeb 	b	202420 <psci_cpu_suspend+0x94>

0000000000202478 <psci_cpu_suspend_finish>:
  202478:	a9be7bfd 	stp	x29, x30, [sp, #-32]!
  20247c:	d0000020 	adrp	x0, 208000 <__STACKS_START__+0x1e80>
  202480:	910003fd 	mov	x29, sp
  202484:	f945e400 	ldr	x0, [x0, #3016]
  202488:	a90153f3 	stp	x19, x20, [sp, #16]
  20248c:	aa0103f3 	mov	x19, x1
  202490:	f9401c01 	ldr	x1, [x0, #56]
  202494:	aa1303e0 	mov	x0, x19
  202498:	d63f0020 	blr	x1
  20249c:	97fffe99 	bl	201f00 <plat_get_syscnt_freq2>
  2024a0:	2a0003e0 	mov	w0, w0
  2024a4:	d51be000 	msr	cntfrq_el0, x0
  2024a8:	d0000034 	adrp	x20, 208000 <__STACKS_START__+0x1e80>
  2024ac:	f945ea80 	ldr	x0, [x20, #3024]
  2024b0:	b4000120 	cbz	x0, 2024d4 <psci_cpu_suspend_finish+0x5c>
  2024b4:	f9401000 	ldr	x0, [x0, #32]
  2024b8:	b40000e0 	cbz	x0, 2024d4 <psci_cpu_suspend_finish+0x5c>
  2024bc:	aa1303e0 	mov	x0, x19
  2024c0:	94000135 	bl	202994 <psci_find_max_off_lvl>
  2024c4:	f945ea81 	ldr	x1, [x20, #3024]
  2024c8:	2a0003e0 	mov	w0, w0
  2024cc:	f9401021 	ldr	x1, [x1, #32]
  2024d0:	d63f0020 	blr	x1
  2024d4:	d53ed040 	mrs	x0, tpidr_el3
  2024d8:	f0000013 	adrp	x19, 205000 <__TEXT_END__>
  2024dc:	f0000014 	adrp	x20, 205000 <__TEXT_END__>
  2024e0:	911e6273 	add	x19, x19, #0x798
  2024e4:	911e6294 	add	x20, x20, #0x798
  2024e8:	52800061 	mov	w1, #0x3                   	// #3
  2024ec:	b9001c01 	str	w1, [x0, #28]
  2024f0:	eb14027f 	cmp	x19, x20
  2024f4:	540000a3 	b.cc	202508 <psci_cpu_suspend_finish+0x90>  // b.lo, b.ul, b.last
  2024f8:	a94153f3 	ldp	x19, x20, [sp, #16]
  2024fc:	52800020 	mov	w0, #0x1                   	// #1
  202500:	a8c27bfd 	ldp	x29, x30, [sp], #32
  202504:	17fffac8 	b	201024 <cm_prepare_el3_exit>
  202508:	f8408661 	ldr	x1, [x19], #8
  20250c:	d2800000 	mov	x0, #0x0                   	// #0
  202510:	d63f0020 	blr	x1
  202514:	17fffff7 	b	2024f0 <psci_cpu_suspend_finish+0x78>

0000000000202518 <psci_cpu_suspend_start>:
  202518:	a9b97bfd 	stp	x29, x30, [sp, #-112]!
  20251c:	910003fd 	mov	x29, sp
  202520:	a90153f3 	stp	x19, x20, [sp, #16]
  202524:	2a0103f3 	mov	w19, w1
  202528:	aa0203f4 	mov	x20, x2
  20252c:	a9025bf5 	stp	x21, x22, [sp, #32]
  202530:	2a0303f6 	mov	w22, w3
  202534:	a90363f7 	stp	x23, x24, [sp, #48]
  202538:	a9046bf9 	stp	x25, x26, [sp, #64]
  20253c:	aa0003f9 	mov	x25, x0
  202540:	97fff8d4 	bl	200890 <plat_my_core_pos>
  202544:	910183e2 	add	x2, sp, #0x60
  202548:	2a0003f8 	mov	w24, w0
  20254c:	2a1303e1 	mov	w1, w19
  202550:	f90033ff 	str	xzr, [sp, #96]
  202554:	9400012c 	bl	202a04 <psci_get_parent_pwr_domain_nodes>
  202558:	910183e1 	add	x1, sp, #0x60
  20255c:	2a1303e0 	mov	w0, w19
  202560:	97fffead 	bl	202014 <psci_acquire_pwr_domain_locks>
  202564:	d538c100 	mrs	x0, isr_el1
  202568:	b5000600 	cbnz	x0, 202628 <psci_cpu_suspend_start+0x110>
  20256c:	aa1403e1 	mov	x1, x20
  202570:	2a1303e0 	mov	w0, w19
  202574:	94000084 	bl	202784 <psci_do_state_coordination>
  202578:	340002f6 	cbz	w22, 2025d4 <psci_cpu_suspend_start+0xbc>
  20257c:	aa1403e0 	mov	x0, x20
  202580:	f0000015 	adrp	x21, 205000 <__TEXT_END__>
  202584:	f000001a 	adrp	x26, 205000 <__TEXT_END__>
  202588:	94000103 	bl	202994 <psci_find_max_off_lvl>
  20258c:	911e62b5 	add	x21, x21, #0x798
  202590:	2a0003f7 	mov	w23, w0
  202594:	911e635a 	add	x26, x26, #0x798
  202598:	eb1a02bf 	cmp	x21, x26
  20259c:	540003e3 	b.cc	202618 <psci_cpu_suspend_start+0x100>  // b.lo, b.ul, b.last
  2025a0:	d53ed040 	mrs	x0, tpidr_el3
  2025a4:	b9001c13 	str	w19, [x0, #28]
  2025a8:	d0000020 	adrp	x0, 208000 <__STACKS_START__+0x1e80>
  2025ac:	f945e800 	ldr	x0, [x0, #3024]
  2025b0:	b40000a0 	cbz	x0, 2025c4 <psci_cpu_suspend_start+0xac>
  2025b4:	f9400801 	ldr	x1, [x0, #16]
  2025b8:	b4000061 	cbz	x1, 2025c4 <psci_cpu_suspend_start+0xac>
  2025bc:	2a1703e0 	mov	w0, w23
  2025c0:	d63f0020 	blr	x1
  2025c4:	aa1903e0 	mov	x0, x25
  2025c8:	97fffa8c 	bl	200ff8 <cm_init_my_context>
  2025cc:	2a1703e0 	mov	w0, w23
  2025d0:	9400006c 	bl	202780 <psci_do_pwrdown_sequence>
  2025d4:	d0000020 	adrp	x0, 208000 <__STACKS_START__+0x1e80>
  2025d8:	52800015 	mov	w21, #0x0                   	// #0
  2025dc:	f945e400 	ldr	x0, [x0, #3016]
  2025e0:	f9401001 	ldr	x1, [x0, #32]
  2025e4:	aa1403e0 	mov	x0, x20
  2025e8:	d63f0020 	blr	x1
  2025ec:	910183e1 	add	x1, sp, #0x60
  2025f0:	2a1303e0 	mov	w0, w19
  2025f4:	9400022b 	bl	202ea0 <psci_release_pwr_domain_locks>
  2025f8:	35000495 	cbnz	w21, 202688 <psci_cpu_suspend_start+0x170>
  2025fc:	d0000035 	adrp	x21, 208000 <__STACKS_START__+0x1e80>
  202600:	340001b6 	cbz	w22, 202634 <psci_cpu_suspend_start+0x11c>
  202604:	f945e6a0 	ldr	x0, [x21, #3016]
  202608:	f9402001 	ldr	x1, [x0, #64]
  20260c:	b4000121 	cbz	x1, 202630 <psci_cpu_suspend_start+0x118>
  202610:	aa1403e0 	mov	x0, x20
  202614:	d63f0020 	blr	x1
  202618:	f84086a1 	ldr	x1, [x21], #8
  20261c:	d2800000 	mov	x0, #0x0                   	// #0
  202620:	d63f0020 	blr	x1
  202624:	17ffffdd 	b	202598 <psci_cpu_suspend_start+0x80>
  202628:	52800035 	mov	w21, #0x1                   	// #1
  20262c:	17fffff0 	b	2025ec <psci_cpu_suspend_start+0xd4>
  202630:	97fff8c6 	bl	200948 <psci_power_down_wfi>
  202634:	d503207f 	wfi
  202638:	9101a3e2 	add	x2, sp, #0x68
  20263c:	2a1303e1 	mov	w1, w19
  202640:	2a1803e0 	mov	w0, w24
  202644:	f90037ff 	str	xzr, [sp, #104]
  202648:	940000ef 	bl	202a04 <psci_get_parent_pwr_domain_nodes>
  20264c:	9101a3e1 	add	x1, sp, #0x68
  202650:	2a1303e0 	mov	w0, w19
  202654:	97fffe70 	bl	202014 <psci_acquire_pwr_domain_locks>
  202658:	910163e1 	add	x1, sp, #0x58
  20265c:	2a1303e0 	mov	w0, w19
  202660:	940000fb 	bl	202a4c <psci_get_target_local_pwr_states>
  202664:	f945e6a0 	ldr	x0, [x21, #3016]
  202668:	f9401c01 	ldr	x1, [x0, #56]
  20266c:	910163e0 	add	x0, sp, #0x58
  202670:	d63f0020 	blr	x1
  202674:	2a1303e0 	mov	w0, w19
  202678:	94000220 	bl	202ef8 <psci_set_pwr_domains_to_run>
  20267c:	9101a3e1 	add	x1, sp, #0x68
  202680:	2a1303e0 	mov	w0, w19
  202684:	94000207 	bl	202ea0 <psci_release_pwr_domain_locks>
  202688:	a94153f3 	ldp	x19, x20, [sp, #16]
  20268c:	a9425bf5 	ldp	x21, x22, [sp, #32]
  202690:	a94363f7 	ldp	x23, x24, [sp, #48]
  202694:	a9446bf9 	ldp	x25, x26, [sp, #64]
  202698:	a8c77bfd 	ldp	x29, x30, [sp], #112
  20269c:	d65f03c0 	ret

00000000002026a0 <psci_do_cpu_off>:
  2026a0:	a9bd7bfd 	stp	x29, x30, [sp, #-48]!
  2026a4:	910003fd 	mov	x29, sp
  2026a8:	a90153f3 	stp	x19, x20, [sp, #16]
  2026ac:	2a0003f4 	mov	w20, w0
  2026b0:	97fff878 	bl	200890 <plat_my_core_pos>
  2026b4:	9100a3e2 	add	x2, sp, #0x28
  2026b8:	52804041 	mov	w1, #0x202                 	// #514
  2026bc:	790043e1 	strh	w1, [sp, #32]
  2026c0:	52800041 	mov	w1, #0x2                   	// #2
  2026c4:	39008be1 	strb	w1, [sp, #34]
  2026c8:	2a1403e1 	mov	w1, w20
  2026cc:	f90017ff 	str	xzr, [sp, #40]
  2026d0:	940000cd 	bl	202a04 <psci_get_parent_pwr_domain_nodes>
  2026d4:	2a1403e0 	mov	w0, w20
  2026d8:	9100a3e1 	add	x1, sp, #0x28
  2026dc:	97fffe4e 	bl	202014 <psci_acquire_pwr_domain_locks>
  2026e0:	d0000020 	adrp	x0, 208000 <__STACKS_START__+0x1e80>
  2026e4:	f945e800 	ldr	x0, [x0, #3024]
  2026e8:	b5000340 	cbnz	x0, 202750 <psci_do_cpu_off+0xb0>
  2026ec:	910083e1 	add	x1, sp, #0x20
  2026f0:	2a1403e0 	mov	w0, w20
  2026f4:	94000024 	bl	202784 <psci_do_state_coordination>
  2026f8:	52800013 	mov	w19, #0x0                   	// #0
  2026fc:	910083e0 	add	x0, sp, #0x20
  202700:	940000a5 	bl	202994 <psci_find_max_off_lvl>
  202704:	9400001f 	bl	202780 <psci_do_pwrdown_sequence>
  202708:	d0000020 	adrp	x0, 208000 <__STACKS_START__+0x1e80>
  20270c:	f945e400 	ldr	x0, [x0, #3016]
  202710:	f9400801 	ldr	x1, [x0, #16]
  202714:	910083e0 	add	x0, sp, #0x20
  202718:	d63f0020 	blr	x1
  20271c:	9100a3e1 	add	x1, sp, #0x28
  202720:	2a1403e0 	mov	w0, w20
  202724:	940001df 	bl	202ea0 <psci_release_pwr_domain_locks>
  202728:	35000253 	cbnz	w19, 202770 <psci_do_cpu_off+0xd0>
  20272c:	d53ed040 	mrs	x0, tpidr_el3
  202730:	52800021 	mov	w1, #0x1                   	// #1
  202734:	b9001801 	str	w1, [x0, #24]
  202738:	d0000020 	adrp	x0, 208000 <__STACKS_START__+0x1e80>
  20273c:	f945e400 	ldr	x0, [x0, #3016]
  202740:	f9402001 	ldr	x1, [x0, #64]
  202744:	b4000141 	cbz	x1, 20276c <psci_do_cpu_off+0xcc>
  202748:	910083e0 	add	x0, sp, #0x20
  20274c:	d63f0020 	blr	x1
  202750:	f9400401 	ldr	x1, [x0, #8]
  202754:	b4fffcc1 	cbz	x1, 2026ec <psci_do_cpu_off+0x4c>
  202758:	d2800000 	mov	x0, #0x0                   	// #0
  20275c:	d63f0020 	blr	x1
  202760:	2a0003f3 	mov	w19, w0
  202764:	34fffc40 	cbz	w0, 2026ec <psci_do_cpu_off+0x4c>
  202768:	17ffffed 	b	20271c <psci_do_cpu_off+0x7c>
  20276c:	97fff877 	bl	200948 <psci_power_down_wfi>
  202770:	2a1303e0 	mov	w0, w19
  202774:	a94153f3 	ldp	x19, x20, [sp, #16]
  202778:	a8c37bfd 	ldp	x29, x30, [sp], #48
  20277c:	d65f03c0 	ret

0000000000202780 <psci_do_pwrdown_sequence>:
  202780:	17fff869 	b	200924 <prepare_cpu_pwr_dwn>

0000000000202784 <psci_do_state_coordination>:
  202784:	a9ba7bfd 	stp	x29, x30, [sp, #-96]!
  202788:	910003fd 	mov	x29, sp
  20278c:	a90153f3 	stp	x19, x20, [sp, #16]
  202790:	aa0103f3 	mov	x19, x1
  202794:	a9025bf5 	stp	x21, x22, [sp, #32]
  202798:	d0000036 	adrp	x22, 208000 <__STACKS_START__+0x1e80>
  20279c:	912e22d6 	add	x22, x22, #0xb88
  2027a0:	a90363f7 	stp	x23, x24, [sp, #48]
  2027a4:	2a0003f7 	mov	w23, w0
  2027a8:	a9046bf9 	stp	x25, x26, [sp, #64]
  2027ac:	d0000039 	adrp	x25, 208000 <__STACKS_START__+0x1e80>
  2027b0:	d000003a 	adrp	x26, 208000 <__STACKS_START__+0x1e80>
  2027b4:	a90573fb 	stp	x27, x28, [sp, #80]
  2027b8:	97fff836 	bl	200890 <plat_my_core_pos>
  2027bc:	2a0003fb 	mov	w27, w0
  2027c0:	aa1b03f8 	mov	x24, x27
  2027c4:	913d4339 	add	x25, x25, #0xf50
  2027c8:	d37c7f60 	ubfiz	x0, x27, #4, #32
  2027cc:	913dc35a 	add	x26, x26, #0xf70
  2027d0:	8b0002c0 	add	x0, x22, x0
  2027d4:	b9400815 	ldr	w21, [x0, #8]
  2027d8:	52800020 	mov	w0, #0x1                   	// #1
  2027dc:	6b17001f 	cmp	w0, w23
  2027e0:	11000414 	add	w20, w0, #0x1
  2027e4:	54000408 	b.hi	202864 <psci_do_state_coordination+0xe0>  // b.pmore
  2027e8:	51000401 	sub	w1, w0, #0x1
  2027ec:	2a0003fc 	mov	w28, w0
  2027f0:	7100043f 	cmp	w1, #0x1
  2027f4:	2a1503f5 	mov	w21, w21
  2027f8:	540006c8 	b.hi	2028d0 <psci_do_state_coordination+0x14c>  // b.pmore
  2027fc:	b9400342 	ldr	w2, [x26]
  202800:	6b02031f 	cmp	w24, w2
  202804:	540000c2 	b.cs	20281c <psci_do_state_coordination+0x98>  // b.hs, b.nlast
  202808:	d0000022 	adrp	x2, 208000 <__STACKS_START__+0x1e80>
  20280c:	913fe042 	add	x2, x2, #0xff8
  202810:	8b214842 	add	x2, x2, w1, uxtw #2
  202814:	387c6a63 	ldrb	w3, [x19, x28]
  202818:	383b6843 	strb	w3, [x2, x27]
  20281c:	7100043f 	cmp	w1, #0x1
  202820:	54000588 	b.hi	2028d0 <psci_do_state_coordination+0x14c>  // b.pmore
  202824:	d37ceea2 	lsl	x2, x21, #4
  202828:	b9400344 	ldr	w4, [x26]
  20282c:	b8626b23 	ldr	w3, [x25, x2]
  202830:	2a0303e2 	mov	w2, w3
  202834:	6b04007f 	cmp	w3, w4
  202838:	8b214842 	add	x2, x2, w1, uxtw #2
  20283c:	d0000021 	adrp	x1, 208000 <__STACKS_START__+0x1e80>
  202840:	913fe021 	add	x1, x1, #0xff8
  202844:	8b020021 	add	x1, x1, x2
  202848:	9a9f3021 	csel	x1, x1, xzr, cc  // cc = lo, ul, last
  20284c:	8b151335 	add	x21, x25, x21, lsl #4
  202850:	b94006a2 	ldr	w2, [x21, #4]
  202854:	97fffdae 	bl	201f0c <plat_get_target_pwr_state>
  202858:	383c6a60 	strb	w0, [x19, x28]
  20285c:	72001c1f 	tst	w0, #0xff
  202860:	540003c1 	b.ne	2028d8 <psci_do_state_coordination+0x154>  // b.any
  202864:	d0000020 	adrp	x0, 208000 <__STACKS_START__+0x1e80>
  202868:	d0000022 	adrp	x2, 208000 <__STACKS_START__+0x1e80>
  20286c:	2a1403e1 	mov	w1, w20
  202870:	913fe042 	add	x2, x2, #0xff8
  202874:	b94f7004 	ldr	w4, [x0, #3952]
  202878:	6b17003f 	cmp	w1, w23
  20287c:	54000349 	b.ls	2028e4 <psci_do_state_coordination+0x160>  // b.plast
  202880:	39400261 	ldrb	w1, [x19]
  202884:	d53ed040 	mrs	x0, tpidr_el3
  202888:	39008001 	strb	w1, [x0, #32]
  20288c:	97fff801 	bl	200890 <plat_my_core_pos>
  202890:	d37c7c00 	ubfiz	x0, x0, #4, #32
  202894:	8b0002d6 	add	x22, x22, x0
  202898:	d0000022 	adrp	x2, 208000 <__STACKS_START__+0x1e80>
  20289c:	913d4042 	add	x2, x2, #0xf50
  2028a0:	d2800001 	mov	x1, #0x0                   	// #0
  2028a4:	b9400ac0 	ldr	w0, [x22, #8]
  2028a8:	91000421 	add	x1, x1, #0x1
  2028ac:	6b0102ff 	cmp	w23, w1
  2028b0:	54000322 	b.cs	202914 <psci_do_state_coordination+0x190>  // b.hs, b.nlast
  2028b4:	a94153f3 	ldp	x19, x20, [sp, #16]
  2028b8:	a9425bf5 	ldp	x21, x22, [sp, #32]
  2028bc:	a94363f7 	ldp	x23, x24, [sp, #48]
  2028c0:	a9446bf9 	ldp	x25, x26, [sp, #64]
  2028c4:	a94573fb 	ldp	x27, x28, [sp, #80]
  2028c8:	a8c67bfd 	ldp	x29, x30, [sp], #96
  2028cc:	d65f03c0 	ret
  2028d0:	d2800001 	mov	x1, #0x0                   	// #0
  2028d4:	17ffffde 	b	20284c <psci_do_state_coordination+0xc8>
  2028d8:	b9400ab5 	ldr	w21, [x21, #8]
  2028dc:	2a1403e0 	mov	w0, w20
  2028e0:	17ffffbf 	b	2027dc <psci_do_state_coordination+0x58>
  2028e4:	51000420 	sub	w0, w1, #0x1
  2028e8:	2a0103e3 	mov	w3, w1
  2028ec:	7100041f 	cmp	w0, #0x1
  2028f0:	540000c8 	b.hi	202908 <psci_do_state_coordination+0x184>  // b.pmore
  2028f4:	6b04031f 	cmp	w24, w4
  2028f8:	54000082 	b.cs	202908 <psci_do_state_coordination+0x184>  // b.hs, b.nlast
  2028fc:	8b204840 	add	x0, x2, w0, uxtw #2
  202900:	38636a65 	ldrb	w5, [x19, x3]
  202904:	383b6805 	strb	w5, [x0, x27]
  202908:	11000421 	add	w1, w1, #0x1
  20290c:	38236a7f 	strb	wzr, [x19, x3]
  202910:	17ffffda 	b	202878 <psci_do_state_coordination+0xf4>
  202914:	d37c7c00 	ubfiz	x0, x0, #4, #32
  202918:	38616a63 	ldrb	w3, [x19, x1]
  20291c:	8b000040 	add	x0, x2, x0
  202920:	39003003 	strb	w3, [x0, #12]
  202924:	b9400800 	ldr	w0, [x0, #8]
  202928:	17ffffe0 	b	2028a8 <psci_do_state_coordination+0x124>

000000000020292c <psci_features>:
  20292c:	d0000021 	adrp	x1, 208000 <__STACKS_START__+0x1e80>
  202930:	52b00002 	mov	w2, #0x80000000            	// #-2147483648
  202934:	6b02001f 	cmp	w0, w2
  202938:	b94f7421 	ldr	w1, [x1, #3956]
  20293c:	54000240 	b.eq	202984 <psci_features+0x58>  // b.none
  202940:	36f00080 	tbz	w0, #30, 202950 <psci_features+0x24>
  202944:	528c1742 	mov	w2, #0x60ba                	// #24762
  202948:	72a002e2 	movk	w2, #0x17, lsl #16
  20294c:	0a020021 	and	w1, w1, w2
  202950:	d3587402 	ubfx	x2, x0, #24, #6
  202954:	7100105f 	cmp	w2, #0x4
  202958:	540001a1 	b.ne	20298c <psci_features+0x60>  // b.any
  20295c:	d3505c04 	ubfx	x4, x0, #16, #8
  202960:	531f7c02 	lsr	w2, w0, #31
  202964:	36f80140 	tbz	w0, #31, 20298c <psci_features+0x60>
  202968:	121b2803 	and	w3, w0, #0xffe0
  20296c:	2a040063 	orr	w3, w3, w4
  202970:	350000e3 	cbnz	w3, 20298c <psci_features+0x60>
  202974:	1ac02040 	lsl	w0, w2, w0
  202978:	6a01001f 	tst	w0, w1
  20297c:	5a9f13e0 	csetm	w0, eq  // eq = none
  202980:	d65f03c0 	ret
  202984:	52800000 	mov	w0, #0x0                   	// #0
  202988:	17fffffe 	b	202980 <psci_features+0x54>
  20298c:	12800000 	mov	w0, #0xffffffff            	// #-1
  202990:	17fffffc 	b	202980 <psci_features+0x54>

0000000000202994 <psci_find_max_off_lvl>:
  202994:	aa0003e1 	mov	x1, x0
  202998:	39400800 	ldrb	w0, [x0, #2]
  20299c:	7100081f 	cmp	w0, #0x2
  2029a0:	54000120 	b.eq	2029c4 <psci_find_max_off_lvl+0x30>  // b.none
  2029a4:	39400420 	ldrb	w0, [x1, #1]
  2029a8:	7100081f 	cmp	w0, #0x2
  2029ac:	540000e0 	b.eq	2029c8 <psci_find_max_off_lvl+0x34>  // b.none
  2029b0:	39400021 	ldrb	w1, [x1]
  2029b4:	52800060 	mov	w0, #0x3                   	// #3
  2029b8:	7100083f 	cmp	w1, #0x2
  2029bc:	54000041 	b.ne	2029c4 <psci_find_max_off_lvl+0x30>  // b.any
  2029c0:	52800000 	mov	w0, #0x0                   	// #0
  2029c4:	d65f03c0 	ret
  2029c8:	52800020 	mov	w0, #0x1                   	// #1
  2029cc:	17fffffe 	b	2029c4 <psci_find_max_off_lvl+0x30>

00000000002029d0 <psci_find_target_suspend_lvl>:
  2029d0:	39400801 	ldrb	w1, [x0, #2]
  2029d4:	35000101 	cbnz	w1, 2029f4 <psci_find_target_suspend_lvl+0x24>
  2029d8:	39400401 	ldrb	w1, [x0, #1]
  2029dc:	35000101 	cbnz	w1, 2029fc <psci_find_target_suspend_lvl+0x2c>
  2029e0:	39400001 	ldrb	w1, [x0]
  2029e4:	52800060 	mov	w0, #0x3                   	// #3
  2029e8:	34000041 	cbz	w1, 2029f0 <psci_find_target_suspend_lvl+0x20>
  2029ec:	52800000 	mov	w0, #0x0                   	// #0
  2029f0:	d65f03c0 	ret
  2029f4:	52800040 	mov	w0, #0x2                   	// #2
  2029f8:	17fffffe 	b	2029f0 <psci_find_target_suspend_lvl+0x20>
  2029fc:	52800020 	mov	w0, #0x1                   	// #1
  202a00:	17fffffc 	b	2029f0 <psci_find_target_suspend_lvl+0x20>

0000000000202a04 <psci_get_parent_pwr_domain_nodes>:
  202a04:	d37c7c03 	ubfiz	x3, x0, #4, #32
  202a08:	d0000020 	adrp	x0, 208000 <__STACKS_START__+0x1e80>
  202a0c:	912e2000 	add	x0, x0, #0xb88
  202a10:	d0000024 	adrp	x4, 208000 <__STACKS_START__+0x1e80>
  202a14:	8b030000 	add	x0, x0, x3
  202a18:	d1001042 	sub	x2, x2, #0x4
  202a1c:	913d4084 	add	x4, x4, #0xf50
  202a20:	d2800003 	mov	x3, #0x0                   	// #0
  202a24:	b9400800 	ldr	w0, [x0, #8]
  202a28:	91000463 	add	x3, x3, #0x1
  202a2c:	6b03003f 	cmp	w1, w3
  202a30:	54000042 	b.cs	202a38 <psci_get_parent_pwr_domain_nodes+0x34>  // b.hs, b.nlast
  202a34:	d65f03c0 	ret
  202a38:	b8237840 	str	w0, [x2, x3, lsl #2]
  202a3c:	d37c7c00 	ubfiz	x0, x0, #4, #32
  202a40:	8b000080 	add	x0, x4, x0
  202a44:	b9400800 	ldr	w0, [x0, #8]
  202a48:	17fffff8 	b	202a28 <psci_get_parent_pwr_domain_nodes+0x24>

0000000000202a4c <psci_get_target_local_pwr_states>:
  202a4c:	a9be7bfd 	stp	x29, x30, [sp, #-32]!
  202a50:	910003fd 	mov	x29, sp
  202a54:	a90153f3 	stp	x19, x20, [sp, #16]
  202a58:	2a0003f4 	mov	w20, w0
  202a5c:	aa0103f3 	mov	x19, x1
  202a60:	d53ed040 	mrs	x0, tpidr_el3
  202a64:	39408000 	ldrb	w0, [x0, #32]
  202a68:	39000020 	strb	w0, [x1]
  202a6c:	97fff789 	bl	200890 <plat_my_core_pos>
  202a70:	d37c7c00 	ubfiz	x0, x0, #4, #32
  202a74:	d0000021 	adrp	x1, 208000 <__STACKS_START__+0x1e80>
  202a78:	912e2021 	add	x1, x1, #0xb88
  202a7c:	8b000021 	add	x1, x1, x0
  202a80:	d0000020 	adrp	x0, 208000 <__STACKS_START__+0x1e80>
  202a84:	913d4000 	add	x0, x0, #0xf50
  202a88:	52800022 	mov	w2, #0x1                   	// #1
  202a8c:	b9400823 	ldr	w3, [x1, #8]
  202a90:	6b14005f 	cmp	w2, w20
  202a94:	2a0203e1 	mov	w1, w2
  202a98:	540000e9 	b.ls	202ab4 <psci_get_target_local_pwr_states+0x68>  // b.plast
  202a9c:	8b010273 	add	x19, x19, x1
  202aa0:	7100085f 	cmp	w2, #0x2
  202aa4:	54000169 	b.ls	202ad0 <psci_get_target_local_pwr_states+0x84>  // b.plast
  202aa8:	a94153f3 	ldp	x19, x20, [sp, #16]
  202aac:	a8c27bfd 	ldp	x29, x30, [sp], #32
  202ab0:	d65f03c0 	ret
  202ab4:	d37c7c63 	ubfiz	x3, x3, #4, #32
  202ab8:	11000442 	add	w2, w2, #0x1
  202abc:	8b030003 	add	x3, x0, x3
  202ac0:	39403064 	ldrb	w4, [x3, #12]
  202ac4:	38216a64 	strb	w4, [x19, x1]
  202ac8:	b9400863 	ldr	w3, [x3, #8]
  202acc:	17fffff1 	b	202a90 <psci_get_target_local_pwr_states+0x44>
  202ad0:	11000442 	add	w2, w2, #0x1
  202ad4:	3800167f 	strb	wzr, [x19], #1
  202ad8:	17fffff2 	b	202aa0 <psci_get_target_local_pwr_states+0x54>

0000000000202adc <psci_init_req_local_pwr_states>:
  202adc:	d0000020 	adrp	x0, 208000 <__STACKS_START__+0x1e80>
  202ae0:	d0000021 	adrp	x1, 208000 <__STACKS_START__+0x1e80>
  202ae4:	913fe021 	add	x1, x1, #0xff8
  202ae8:	52800043 	mov	w3, #0x2                   	// #2
  202aec:	b94f7002 	ldr	w2, [x0, #3952]
  202af0:	d2800000 	mov	x0, #0x0                   	// #0
  202af4:	6b00005f 	cmp	w2, w0
  202af8:	54000089 	b.ls	202b08 <psci_init_req_local_pwr_states+0x2c>  // b.plast
  202afc:	38216803 	strb	w3, [x0, x1]
  202b00:	91000400 	add	x0, x0, #0x1
  202b04:	17fffffc 	b	202af4 <psci_init_req_local_pwr_states+0x18>
  202b08:	d0000021 	adrp	x1, 208000 <__STACKS_START__+0x1e80>
  202b0c:	913fe021 	add	x1, x1, #0xff8
  202b10:	d2800000 	mov	x0, #0x0                   	// #0
  202b14:	52800044 	mov	w4, #0x2                   	// #2
  202b18:	6b00005f 	cmp	w2, w0
  202b1c:	540000a9 	b.ls	202b30 <psci_init_req_local_pwr_states+0x54>  // b.plast
  202b20:	8b000023 	add	x3, x1, x0
  202b24:	91000400 	add	x0, x0, #0x1
  202b28:	39001064 	strb	w4, [x3, #4]
  202b2c:	17fffffb 	b	202b18 <psci_init_req_local_pwr_states+0x3c>
  202b30:	d65f03c0 	ret

0000000000202b34 <psci_is_last_on_cpu>:
  202b34:	a9bd7bfd 	stp	x29, x30, [sp, #-48]!
  202b38:	910003fd 	mov	x29, sp
  202b3c:	a90153f3 	stp	x19, x20, [sp, #16]
  202b40:	d0000034 	adrp	x20, 208000 <__STACKS_START__+0x1e80>
  202b44:	913dc294 	add	x20, x20, #0xf70
  202b48:	f90013f5 	str	x21, [sp, #32]
  202b4c:	97fff751 	bl	200890 <plat_my_core_pos>
  202b50:	2a0003f5 	mov	w21, w0
  202b54:	52800013 	mov	w19, #0x0                   	// #0
  202b58:	b9400280 	ldr	w0, [x20]
  202b5c:	6b13001f 	cmp	w0, w19
  202b60:	540000c8 	b.hi	202b78 <psci_is_last_on_cpu+0x44>  // b.pmore
  202b64:	52800020 	mov	w0, #0x1                   	// #1
  202b68:	a94153f3 	ldp	x19, x20, [sp, #16]
  202b6c:	f94013f5 	ldr	x21, [sp, #32]
  202b70:	a8c37bfd 	ldp	x29, x30, [sp], #48
  202b74:	d65f03c0 	ret
  202b78:	6b15027f 	cmp	w19, w21
  202b7c:	54000061 	b.ne	202b88 <psci_is_last_on_cpu+0x54>  // b.any
  202b80:	11000673 	add	w19, w19, #0x1
  202b84:	17fffff5 	b	202b58 <psci_is_last_on_cpu+0x24>
  202b88:	2a1303e0 	mov	w0, w19
  202b8c:	97fff5d8 	bl	2002ec <_cpu_data_by_index>
  202b90:	b9401800 	ldr	w0, [x0, #24]
  202b94:	7100041f 	cmp	w0, #0x1
  202b98:	54ffff40 	b.eq	202b80 <psci_is_last_on_cpu+0x4c>  // b.none
  202b9c:	52800000 	mov	w0, #0x0                   	// #0
  202ba0:	17fffff2 	b	202b68 <psci_is_last_on_cpu+0x34>

0000000000202ba4 <psci_mem_chk_range>:
  202ba4:	b50000c1 	cbnz	x1, 202bbc <psci_mem_chk_range+0x18>
  202ba8:	92800040 	mov	x0, #0xfffffffffffffffd    	// #-3
  202bac:	d65f03c0 	ret
  202bb0:	92800040 	mov	x0, #0xfffffffffffffffd    	// #-3
  202bb4:	a8c17bfd 	ldp	x29, x30, [sp], #16
  202bb8:	d65f03c0 	ret
  202bbc:	cb0103e2 	neg	x2, x1
  202bc0:	eb00005f 	cmp	x2, x0
  202bc4:	54ffff23 	b.cc	202ba8 <psci_mem_chk_range+0x4>  // b.lo, b.ul, b.last
  202bc8:	a9bf7bfd 	stp	x29, x30, [sp, #-16]!
  202bcc:	d0000022 	adrp	x2, 208000 <__STACKS_START__+0x1e80>
  202bd0:	910003fd 	mov	x29, sp
  202bd4:	f945e442 	ldr	x2, [x2, #3016]
  202bd8:	f9404442 	ldr	x2, [x2, #136]
  202bdc:	d63f0040 	blr	x2
  202be0:	37fffe80 	tbnz	w0, #31, 202bb0 <psci_mem_chk_range+0xc>
  202be4:	d2800000 	mov	x0, #0x0                   	// #0
  202be8:	17fffff3 	b	202bb4 <psci_mem_chk_range+0x10>

0000000000202bec <psci_mem_protect>:
  202bec:	a9bd7bfd 	stp	x29, x30, [sp, #-48]!
  202bf0:	910003fd 	mov	x29, sp
  202bf4:	a90153f3 	stp	x19, x20, [sp, #16]
  202bf8:	d0000034 	adrp	x20, 208000 <__STACKS_START__+0x1e80>
  202bfc:	2a0003f3 	mov	w19, w0
  202c00:	f945e680 	ldr	x0, [x20, #3016]
  202c04:	f9404801 	ldr	x1, [x0, #144]
  202c08:	9100b3e0 	add	x0, sp, #0x2c
  202c0c:	d63f0020 	blr	x1
  202c10:	36f800a0 	tbz	w0, #31, 202c24 <psci_mem_protect+0x38>
  202c14:	92800000 	mov	x0, #0xffffffffffffffff    	// #-1
  202c18:	a94153f3 	ldp	x19, x20, [sp, #16]
  202c1c:	a8c37bfd 	ldp	x29, x30, [sp], #48
  202c20:	d65f03c0 	ret
  202c24:	f945e680 	ldr	x0, [x20, #3016]
  202c28:	f9404c01 	ldr	x1, [x0, #152]
  202c2c:	2a1303e0 	mov	w0, w19
  202c30:	d63f0020 	blr	x1
  202c34:	37ffff00 	tbnz	w0, #31, 202c14 <psci_mem_protect+0x28>
  202c38:	b9402fe0 	ldr	w0, [sp, #44]
  202c3c:	7100001f 	cmp	w0, #0x0
  202c40:	9a9f07e0 	cset	x0, ne  // ne = any
  202c44:	17fffff5 	b	202c18 <psci_mem_protect+0x2c>

0000000000202c48 <psci_migrate>:
  202c48:	a9bd7bfd 	stp	x29, x30, [sp, #-48]!
  202c4c:	910003fd 	mov	x29, sp
  202c50:	f9000bf3 	str	x19, [sp, #16]
  202c54:	aa0003f3 	mov	x19, x0
  202c58:	9100a3e0 	add	x0, sp, #0x28
  202c5c:	940001f3 	bl	203428 <psci_spd_migrate_info>
  202c60:	340000e0 	cbz	w0, 202c7c <psci_migrate+0x34>
  202c64:	7100041f 	cmp	w0, #0x1
  202c68:	12800040 	mov	w0, #0xfffffffd            	// #-3
  202c6c:	5a9f0000 	csinv	w0, w0, wzr, eq  // eq = none
  202c70:	f9400bf3 	ldr	x19, [sp, #16]
  202c74:	a8c37bfd 	ldp	x29, x30, [sp], #48
  202c78:	d65f03c0 	ret
  202c7c:	d53800a0 	mrs	x0, mpidr_el1
  202c80:	f94017e1 	ldr	x1, [sp, #40]
  202c84:	eb00003f 	cmp	x1, x0
  202c88:	54000161 	b.ne	202cb4 <psci_migrate+0x6c>  // b.any
  202c8c:	aa1303e0 	mov	x0, x19
  202c90:	9400028f 	bl	2036cc <psci_validate_mpidr>
  202c94:	35000140 	cbnz	w0, 202cbc <psci_migrate+0x74>
  202c98:	d53800a0 	mrs	x0, mpidr_el1
  202c9c:	d0000021 	adrp	x1, 208000 <__STACKS_START__+0x1e80>
  202ca0:	f945e821 	ldr	x1, [x1, #3024]
  202ca4:	f9401422 	ldr	x2, [x1, #40]
  202ca8:	aa1303e1 	mov	x1, x19
  202cac:	d63f0040 	blr	x2
  202cb0:	17fffff0 	b	202c70 <psci_migrate+0x28>
  202cb4:	128000c0 	mov	w0, #0xfffffff9            	// #-7
  202cb8:	17ffffee 	b	202c70 <psci_migrate+0x28>
  202cbc:	12800020 	mov	w0, #0xfffffffe            	// #-2
  202cc0:	17ffffec 	b	202c70 <psci_migrate+0x28>

0000000000202cc4 <psci_migrate_info_type>:
  202cc4:	a9be7bfd 	stp	x29, x30, [sp, #-32]!
  202cc8:	910003fd 	mov	x29, sp
  202ccc:	910063e0 	add	x0, sp, #0x18
  202cd0:	940001d6 	bl	203428 <psci_spd_migrate_info>
  202cd4:	a8c27bfd 	ldp	x29, x30, [sp], #32
  202cd8:	d65f03c0 	ret

0000000000202cdc <psci_migrate_info_up_cpu>:
  202cdc:	a9be7bfd 	stp	x29, x30, [sp, #-32]!
  202ce0:	910003fd 	mov	x29, sp
  202ce4:	910063e0 	add	x0, sp, #0x18
  202ce8:	940001d0 	bl	203428 <psci_spd_migrate_info>
  202cec:	f9400fe1 	ldr	x1, [sp, #24]
  202cf0:	7100041f 	cmp	w0, #0x1
  202cf4:	a8c27bfd 	ldp	x29, x30, [sp], #32
  202cf8:	92800020 	mov	x0, #0xfffffffffffffffe    	// #-2
  202cfc:	9a809020 	csel	x0, x1, x0, ls  // ls = plast
  202d00:	d65f03c0 	ret

0000000000202d04 <psci_node_hw_state>:
  202d04:	a9be7bfd 	stp	x29, x30, [sp, #-32]!
  202d08:	910003fd 	mov	x29, sp
  202d0c:	a90153f3 	stp	x19, x20, [sp, #16]
  202d10:	aa0003f4 	mov	x20, x0
  202d14:	2a0103f3 	mov	w19, w1
  202d18:	9400026d 	bl	2036cc <psci_validate_mpidr>
  202d1c:	35000180 	cbnz	w0, 202d4c <psci_node_hw_state+0x48>
  202d20:	71000a7f 	cmp	w19, #0x2
  202d24:	54000148 	b.hi	202d4c <psci_node_hw_state+0x48>  // b.pmore
  202d28:	d0000020 	adrp	x0, 208000 <__STACKS_START__+0x1e80>
  202d2c:	2a1303e1 	mov	w1, w19
  202d30:	f945e400 	ldr	x0, [x0, #3016]
  202d34:	f9404002 	ldr	x2, [x0, #128]
  202d38:	aa1403e0 	mov	x0, x20
  202d3c:	a94153f3 	ldp	x19, x20, [sp, #16]
  202d40:	aa0203f0 	mov	x16, x2
  202d44:	a8c27bfd 	ldp	x29, x30, [sp], #32
  202d48:	d61f0200 	br	x16
  202d4c:	12800020 	mov	w0, #0xfffffffe            	// #-2
  202d50:	a94153f3 	ldp	x19, x20, [sp, #16]
  202d54:	a8c27bfd 	ldp	x29, x30, [sp], #32
  202d58:	d65f03c0 	ret

0000000000202d5c <psci_print_power_domain_map>:
  202d5c:	a9bb7bfd 	stp	x29, x30, [sp, #-80]!
  202d60:	f0000000 	adrp	x0, 205000 <__TEXT_END__>
  202d64:	910e0400 	add	x0, x0, #0x381
  202d68:	910003fd 	mov	x29, sp
  202d6c:	a90153f3 	stp	x19, x20, [sp, #16]
  202d70:	d0000033 	adrp	x19, 208000 <__STACKS_START__+0x1e80>
  202d74:	d0000034 	adrp	x20, 208000 <__STACKS_START__+0x1e80>
  202d78:	913d4273 	add	x19, x19, #0xf50
  202d7c:	913dc294 	add	x20, x20, #0xf70
  202d80:	a9025bf5 	stp	x21, x22, [sp, #32]
  202d84:	f0000016 	adrp	x22, 205000 <__TEXT_END__>
  202d88:	910042d6 	add	x22, x22, #0x10
  202d8c:	52800015 	mov	w21, #0x0                   	// #0
  202d90:	a90363f7 	stp	x23, x24, [sp, #48]
  202d94:	528000d7 	mov	w23, #0x6                   	// #6
  202d98:	a9046bf9 	stp	x25, x26, [sp, #64]
  202d9c:	940003f0 	bl	203d5c <tf_log>
  202da0:	b9400280 	ldr	w0, [x20]
  202da4:	4b0002e0 	sub	w0, w23, w0
  202da8:	6b15001f 	cmp	w0, w21
  202dac:	54000228 	b.hi	202df0 <psci_print_power_domain_map+0x94>  // b.pmore
  202db0:	d0000033 	adrp	x19, 208000 <__STACKS_START__+0x1e80>
  202db4:	f0000016 	adrp	x22, 205000 <__TEXT_END__>
  202db8:	f0000017 	adrp	x23, 205000 <__TEXT_END__>
  202dbc:	912e2273 	add	x19, x19, #0xb88
  202dc0:	910042d6 	add	x22, x22, #0x10
  202dc4:	910f5af7 	add	x23, x23, #0x3d6
  202dc8:	52800015 	mov	w21, #0x0                   	// #0
  202dcc:	b9400280 	ldr	w0, [x20]
  202dd0:	6b15001f 	cmp	w0, w21
  202dd4:	540002e8 	b.hi	202e30 <psci_print_power_domain_map+0xd4>  // b.pmore
  202dd8:	a94153f3 	ldp	x19, x20, [sp, #16]
  202ddc:	a9425bf5 	ldp	x21, x22, [sp, #32]
  202de0:	a94363f7 	ldp	x23, x24, [sp, #48]
  202de4:	a9446bf9 	ldp	x25, x26, [sp, #64]
  202de8:	a8c57bfd 	ldp	x29, x30, [sp], #80
  202dec:	d65f03c0 	ret
  202df0:	39403264 	ldrb	w4, [x19, #12]
  202df4:	340001a4 	cbz	w4, 202e28 <psci_print_power_domain_map+0xcc>
  202df8:	7100049f 	cmp	w4, #0x1
  202dfc:	1a9f97e0 	cset	w0, hi  // hi = pmore
  202e00:	11000400 	add	w0, w0, #0x1
  202e04:	39403661 	ldrb	w1, [x19, #13]
  202e08:	110006b5 	add	w21, w21, #0x1
  202e0c:	b9400a62 	ldr	w2, [x19, #8]
  202e10:	91004273 	add	x19, x19, #0x10
  202e14:	f8607ac3 	ldr	x3, [x22, x0, lsl #3]
  202e18:	f0000000 	adrp	x0, 205000 <__TEXT_END__>
  202e1c:	910e6800 	add	x0, x0, #0x39a
  202e20:	940003cf 	bl	203d5c <tf_log>
  202e24:	17ffffdf 	b	202da0 <psci_print_power_domain_map+0x44>
  202e28:	d2800000 	mov	x0, #0x0                   	// #0
  202e2c:	17fffff6 	b	202e04 <psci_print_power_domain_map+0xa8>
  202e30:	2a1503e0 	mov	w0, w21
  202e34:	97fff52e 	bl	2002ec <_cpu_data_by_index>
  202e38:	39408000 	ldrb	w0, [x0, #32]
  202e3c:	34000240 	cbz	w0, 202e84 <psci_print_power_domain_map+0x128>
  202e40:	7100041f 	cmp	w0, #0x1
  202e44:	1a9f97e0 	cset	w0, hi  // hi = pmore
  202e48:	11000400 	add	w0, w0, #0x1
  202e4c:	b9400a79 	ldr	w25, [x19, #8]
  202e50:	91004273 	add	x19, x19, #0x10
  202e54:	f85f0278 	ldur	x24, [x19, #-16]
  202e58:	f8607ada 	ldr	x26, [x22, x0, lsl #3]
  202e5c:	2a1503e0 	mov	w0, w21
  202e60:	97fff523 	bl	2002ec <_cpu_data_by_index>
  202e64:	39408004 	ldrb	w4, [x0, #32]
  202e68:	aa1a03e3 	mov	x3, x26
  202e6c:	2a1903e2 	mov	w2, w25
  202e70:	aa1803e1 	mov	x1, x24
  202e74:	aa1703e0 	mov	x0, x23
  202e78:	110006b5 	add	w21, w21, #0x1
  202e7c:	940003b8 	bl	203d5c <tf_log>
  202e80:	17ffffd3 	b	202dcc <psci_print_power_domain_map+0x70>
  202e84:	d2800000 	mov	x0, #0x0                   	// #0
  202e88:	17fffff1 	b	202e4c <psci_print_power_domain_map+0xf0>

0000000000202e8c <psci_query_sys_suspend_pwrstate>:
  202e8c:	d0000021 	adrp	x1, 208000 <__STACKS_START__+0x1e80>
  202e90:	f945e421 	ldr	x1, [x1, #3016]
  202e94:	f9403421 	ldr	x1, [x1, #104]
  202e98:	aa0103f0 	mov	x16, x1
  202e9c:	d61f0200 	br	x16

0000000000202ea0 <psci_release_pwr_domain_locks>:
  202ea0:	a9bd7bfd 	stp	x29, x30, [sp, #-48]!
  202ea4:	910003fd 	mov	x29, sp
  202ea8:	a90153f3 	stp	x19, x20, [sp, #16]
  202eac:	2a0003f3 	mov	w19, w0
  202eb0:	aa0103f4 	mov	x20, x1
  202eb4:	a9025bf5 	stp	x21, x22, [sp, #32]
  202eb8:	d0000035 	adrp	x21, 208000 <__STACKS_START__+0x1e80>
  202ebc:	d0000036 	adrp	x22, 208000 <__STACKS_START__+0x1e80>
  202ec0:	913d22b5 	add	x21, x21, #0xf48
  202ec4:	913d42d6 	add	x22, x22, #0xf50
  202ec8:	350000b3 	cbnz	w19, 202edc <psci_release_pwr_domain_locks+0x3c>
  202ecc:	a94153f3 	ldp	x19, x20, [sp, #16]
  202ed0:	a9425bf5 	ldp	x21, x22, [sp, #32]
  202ed4:	a8c37bfd 	ldp	x29, x30, [sp], #48
  202ed8:	d65f03c0 	ret
  202edc:	51000673 	sub	w19, w19, #0x1
  202ee0:	b8735a80 	ldr	w0, [x20, w19, uxtw #2]
  202ee4:	8b0012c0 	add	x0, x22, x0, lsl #4
  202ee8:	39403800 	ldrb	w0, [x0, #14]
  202eec:	8b000aa0 	add	x0, x21, x0, lsl #2
  202ef0:	97fff726 	bl	200b88 <spin_unlock>
  202ef4:	17fffff5 	b	202ec8 <psci_release_pwr_domain_locks+0x28>

0000000000202ef8 <psci_set_pwr_domains_to_run>:
  202ef8:	a9be7bfd 	stp	x29, x30, [sp, #-32]!
  202efc:	910003fd 	mov	x29, sp
  202f00:	f9000bf3 	str	x19, [sp, #16]
  202f04:	2a0003f3 	mov	w19, w0
  202f08:	97fff662 	bl	200890 <plat_my_core_pos>
  202f0c:	d37c7c02 	ubfiz	x2, x0, #4, #32
  202f10:	d0000021 	adrp	x1, 208000 <__STACKS_START__+0x1e80>
  202f14:	912e2021 	add	x1, x1, #0xb88
  202f18:	8b020021 	add	x1, x1, x2
  202f1c:	d0000022 	adrp	x2, 208000 <__STACKS_START__+0x1e80>
  202f20:	d0000023 	adrp	x3, 208000 <__STACKS_START__+0x1e80>
  202f24:	d0000024 	adrp	x4, 208000 <__STACKS_START__+0x1e80>
  202f28:	2a0003e8 	mov	w8, w0
  202f2c:	913d4063 	add	x3, x3, #0xf50
  202f30:	b9400821 	ldr	w1, [x1, #8]
  202f34:	913fe084 	add	x4, x4, #0xff8
  202f38:	b94f7047 	ldr	w7, [x2, #3952]
  202f3c:	52800002 	mov	w2, #0x0                   	// #0
  202f40:	11000446 	add	w6, w2, #0x1
  202f44:	6b06027f 	cmp	w19, w6
  202f48:	54000102 	b.cs	202f68 <psci_set_pwr_domains_to_run+0x70>  // b.hs, b.nlast
  202f4c:	d53ed040 	mrs	x0, tpidr_el3
  202f50:	b900181f 	str	wzr, [x0, #24]
  202f54:	d53ed040 	mrs	x0, tpidr_el3
  202f58:	3900801f 	strb	wzr, [x0, #32]
  202f5c:	f9400bf3 	ldr	x19, [sp, #16]
  202f60:	a8c27bfd 	ldp	x29, x30, [sp], #32
  202f64:	d65f03c0 	ret
  202f68:	2a0103e5 	mov	w5, w1
  202f6c:	d37c7c21 	ubfiz	x1, x1, #4, #32
  202f70:	8b010061 	add	x1, x3, x1
  202f74:	7100045f 	cmp	w2, #0x1
  202f78:	3900303f 	strb	wzr, [x1, #12]
  202f7c:	540000a8 	b.hi	202f90 <psci_set_pwr_domains_to_run+0x98>  // b.pmore
  202f80:	6b07001f 	cmp	w0, w7
  202f84:	54000062 	b.cs	202f90 <psci_set_pwr_domains_to_run+0x98>  // b.hs, b.nlast
  202f88:	8b224882 	add	x2, x4, w2, uxtw #2
  202f8c:	3828685f 	strb	wzr, [x2, x8]
  202f90:	8b051061 	add	x1, x3, x5, lsl #4
  202f94:	2a0603e2 	mov	w2, w6
  202f98:	b9400821 	ldr	w1, [x1, #8]
  202f9c:	17ffffe9 	b	202f40 <psci_set_pwr_domains_to_run+0x48>

0000000000202fa0 <psci_setup>:
  202fa0:	a9b87bfd 	stp	x29, x30, [sp, #-128]!
  202fa4:	910003fd 	mov	x29, sp
  202fa8:	a90153f3 	stp	x19, x20, [sp, #16]
  202fac:	d0000034 	adrp	x20, 208000 <__STACKS_START__+0x1e80>
  202fb0:	910a0294 	add	x20, x20, #0x280
  202fb4:	a9025bf5 	stp	x21, x22, [sp, #32]
  202fb8:	aa0003f5 	mov	x21, x0
  202fbc:	52800016 	mov	w22, #0x0                   	// #0
  202fc0:	a90363f7 	stp	x23, x24, [sp, #48]
  202fc4:	52800017 	mov	w23, #0x0                   	// #0
  202fc8:	52800058 	mov	w24, #0x2                   	// #2
  202fcc:	a9046bf9 	stp	x25, x26, [sp, #64]
  202fd0:	a90573fb 	stp	x27, x28, [sp, #80]
  202fd4:	97fffc41 	bl	2020d8 <psci_arch_setup>
  202fd8:	97fffbc3 	bl	201ee4 <plat_get_power_domain_tree_desc>
  202fdc:	d000003c 	adrp	x28, 208000 <__STACKS_START__+0x1e80>
  202fe0:	aa0003e3 	mov	x3, x0
  202fe4:	912e239c 	add	x28, x28, #0xb88
  202fe8:	52800001 	mov	w1, #0x0                   	// #0
  202fec:	5280003b 	mov	w27, #0x1                   	// #1
  202ff0:	0b160364 	add	w4, w27, w22
  202ff4:	5280001b 	mov	w27, #0x0                   	// #0
  202ff8:	1400000e 	b	203030 <psci_setup+0x90>
  202ffc:	3876487a 	ldrb	w26, [x3, w22, uxtw]
  203000:	2a1703f9 	mov	w25, w23
  203004:	510006c5 	sub	w5, w22, #0x1
  203008:	2b170341 	adds	w1, w26, w23
  20300c:	1a9f37e0 	cset	w0, cs  // cs = hs, nlast
  203010:	6b01033f 	cmp	w25, w1
  203014:	540001e3 	b.cc	203050 <psci_setup+0xb0>  // b.lo, b.ul, b.last
  203018:	7100001f 	cmp	w0, #0x0
  20301c:	0b1a037b 	add	w27, w27, w26
  203020:	1a9f0341 	csel	w1, w26, wzr, eq  // eq = none
  203024:	110006d6 	add	w22, w22, #0x1
  203028:	0b170021 	add	w1, w1, w23
  20302c:	2a0103f7 	mov	w23, w1
  203030:	6b0402df 	cmp	w22, w4
  203034:	54fffe41 	b.ne	202ffc <psci_setup+0x5c>  // b.any
  203038:	71000718 	subs	w24, w24, #0x1
  20303c:	54000540 	b.eq	2030e4 <psci_setup+0x144>  // b.none
  203040:	3100071f 	cmn	w24, #0x1
  203044:	54000540 	b.eq	2030ec <psci_setup+0x14c>  // b.none
  203048:	2a0403f6 	mov	w22, w4
  20304c:	17ffffe9 	b	202ff0 <psci_setup+0x50>
  203050:	12001f33 	and	w19, w25, #0xff
  203054:	340001b8 	cbz	w24, 203088 <psci_setup+0xe8>
  203058:	b0000021 	adrp	x1, 208000 <__STACKS_START__+0x1e80>
  20305c:	913d4021 	add	x1, x1, #0xf50
  203060:	8b33d033 	add	x19, x1, w19, sxtw #4
  203064:	d37c1f20 	ubfiz	x0, x25, #4, #8
  203068:	8b010001 	add	x1, x0, x1
  20306c:	52800040 	mov	w0, #0x2                   	// #2
  203070:	39003678 	strb	w24, [x19, #13]
  203074:	39003839 	strb	w25, [x1, #14]
  203078:	b9000a65 	str	w5, [x19, #8]
  20307c:	39003260 	strb	w0, [x19, #12]
  203080:	11000739 	add	w25, w25, #0x1
  203084:	17ffffe1 	b	203008 <psci_setup+0x68>
  203088:	8b33d381 	add	x1, x28, w19, sxtw #4
  20308c:	937c7e60 	sbfiz	x0, x19, #4, #32
  203090:	f90033e3 	str	x3, [sp, #96]
  203094:	290d13e5 	stp	w5, w4, [sp, #104]
  203098:	b9000825 	str	w5, [x1, #8]
  20309c:	92800001 	mov	x1, #0xffffffffffffffff    	// #-1
  2030a0:	f8206b81 	str	x1, [x28, x0]
  2030a4:	2a1303e0 	mov	w0, w19
  2030a8:	97fff491 	bl	2002ec <_cpu_data_by_index>
  2030ac:	91006001 	add	x1, x0, #0x18
  2030b0:	52800022 	mov	w2, #0x1                   	// #1
  2030b4:	b9001802 	str	w2, [x0, #24]
  2030b8:	52800060 	mov	w0, #0x3                   	// #3
  2030bc:	b9000420 	str	w0, [x1, #4]
  2030c0:	52800040 	mov	w0, #0x2                   	// #2
  2030c4:	39002020 	strb	w0, [x1, #8]
  2030c8:	52804401 	mov	w1, #0x220                 	// #544
  2030cc:	2a1303e0 	mov	w0, w19
  2030d0:	9ba15261 	umaddl	x1, w19, w1, x20
  2030d4:	97fff804 	bl	2010e4 <cm_set_context_by_index>
  2030d8:	294d13e5 	ldp	w5, w4, [sp, #104]
  2030dc:	f94033e3 	ldr	x3, [sp, #96]
  2030e0:	17ffffe8 	b	203080 <psci_setup+0xe0>
  2030e4:	52800017 	mov	w23, #0x0                   	// #0
  2030e8:	17ffffd8 	b	203048 <psci_setup+0xa8>
  2030ec:	b0000020 	adrp	x0, 208000 <__STACKS_START__+0x1e80>
  2030f0:	b0000034 	adrp	x20, 208000 <__STACKS_START__+0x1e80>
  2030f4:	913dc016 	add	x22, x0, #0xf70
  2030f8:	913d4294 	add	x20, x20, #0xf50
  2030fc:	b90f7001 	str	w1, [x0, #3952]
  203100:	52800018 	mov	w24, #0x0                   	// #0
  203104:	52800017 	mov	w23, #0x0                   	// #0
  203108:	52800013 	mov	w19, #0x0                   	// #0
  20310c:	b94002c0 	ldr	w0, [x22]
  203110:	6b00027f 	cmp	w19, w0
  203114:	54000a43 	b.cc	20325c <psci_setup+0x2bc>  // b.lo, b.ul, b.last
  203118:	d53800b3 	mrs	x19, mpidr_el1
  20311c:	97fff5dd 	bl	200890 <plat_my_core_pos>
  203120:	d37c7c00 	ubfiz	x0, x0, #4, #32
  203124:	b0000022 	adrp	x2, 208000 <__STACKS_START__+0x1e80>
  203128:	912e2042 	add	x2, x2, #0xb88
  20312c:	92409e61 	and	x1, x19, #0xffffffffff
  203130:	b0000033 	adrp	x19, 208000 <__STACKS_START__+0x1e80>
  203134:	9260dc21 	and	x1, x1, #0xffffffff00ffffff
  203138:	f8206841 	str	x1, [x2, x0]
  20313c:	97fffe68 	bl	202adc <psci_init_req_local_pwr_states>
  203140:	52800040 	mov	w0, #0x2                   	// #2
  203144:	97ffff6d 	bl	202ef8 <psci_set_pwr_domains_to_run>
  203148:	f94006a0 	ldr	x0, [x21, #8]
  20314c:	912f2261 	add	x1, x19, #0xbc8
  203150:	97fffb93 	bl	201f9c <plat_setup_psci_ops>
  203154:	f945e661 	ldr	x1, [x19, #3016]
  203158:	52808223 	mov	w3, #0x411                 	// #1041
  20315c:	b0000020 	adrp	x0, 208000 <__STACKS_START__+0x1e80>
  203160:	f9400822 	ldr	x2, [x1, #16]
  203164:	f100005f 	cmp	x2, #0x0
  203168:	528082a2 	mov	w2, #0x415                 	// #1045
  20316c:	1a831042 	csel	w2, w2, w3, ne  // ne = any
  203170:	b90f7402 	str	w2, [x0, #3956]
  203174:	f9400423 	ldr	x3, [x1, #8]
  203178:	b40000a3 	cbz	x3, 20318c <psci_setup+0x1ec>
  20317c:	f9401423 	ldr	x3, [x1, #40]
  203180:	b4000063 	cbz	x3, 20318c <psci_setup+0x1ec>
  203184:	321d0042 	orr	w2, w2, #0x8
  203188:	b90f7402 	str	w2, [x0, #3956]
  20318c:	f9401022 	ldr	x2, [x1, #32]
  203190:	b4000162 	cbz	x2, 2031bc <psci_setup+0x21c>
  203194:	f9401c22 	ldr	x2, [x1, #56]
  203198:	b4000122 	cbz	x2, 2031bc <psci_setup+0x21c>
  20319c:	f9403424 	ldr	x4, [x1, #104]
  2031a0:	52880045 	mov	w5, #0x4002                	// #16386
  2031a4:	b94f7402 	ldr	w2, [x0, #3956]
  2031a8:	f100009f 	cmp	x4, #0x0
  2031ac:	321f0043 	orr	w3, w2, #0x2
  2031b0:	2a050042 	orr	w2, w2, w5
  2031b4:	1a831042 	csel	w2, w2, w3, ne  // ne = any
  2031b8:	b90f7402 	str	w2, [x0, #3956]
  2031bc:	f9402422 	ldr	x2, [x1, #72]
  2031c0:	b4000082 	cbz	x2, 2031d0 <psci_setup+0x230>
  2031c4:	b94f7402 	ldr	w2, [x0, #3956]
  2031c8:	32180042 	orr	w2, w2, #0x100
  2031cc:	b90f7402 	str	w2, [x0, #3956]
  2031d0:	f9402822 	ldr	x2, [x1, #80]
  2031d4:	b4000082 	cbz	x2, 2031e4 <psci_setup+0x244>
  2031d8:	b94f7402 	ldr	w2, [x0, #3956]
  2031dc:	32170042 	orr	w2, w2, #0x200
  2031e0:	b90f7402 	str	w2, [x0, #3956]
  2031e4:	f9404022 	ldr	x2, [x1, #128]
  2031e8:	b4000082 	cbz	x2, 2031f8 <psci_setup+0x258>
  2031ec:	b94f7402 	ldr	w2, [x0, #3956]
  2031f0:	32130042 	orr	w2, w2, #0x2000
  2031f4:	b90f7402 	str	w2, [x0, #3956]
  2031f8:	f9404822 	ldr	x2, [x1, #144]
  2031fc:	b40000c2 	cbz	x2, 203214 <psci_setup+0x274>
  203200:	f9404c22 	ldr	x2, [x1, #152]
  203204:	b4000082 	cbz	x2, 203214 <psci_setup+0x274>
  203208:	b94f7402 	ldr	w2, [x0, #3956]
  20320c:	320d0042 	orr	w2, w2, #0x80000
  203210:	b90f7402 	str	w2, [x0, #3956]
  203214:	f9404422 	ldr	x2, [x1, #136]
  203218:	b4000082 	cbz	x2, 203228 <psci_setup+0x288>
  20321c:	b94f7402 	ldr	w2, [x0, #3956]
  203220:	320c0042 	orr	w2, w2, #0x100000
  203224:	b90f7402 	str	w2, [x0, #3956]
  203228:	f9405021 	ldr	x1, [x1, #160]
  20322c:	b4000081 	cbz	x1, 20323c <psci_setup+0x29c>
  203230:	b94f7401 	ldr	w1, [x0, #3956]
  203234:	320e0021 	orr	w1, w1, #0x40000
  203238:	b90f7401 	str	w1, [x0, #3956]
  20323c:	52800000 	mov	w0, #0x0                   	// #0
  203240:	a94153f3 	ldp	x19, x20, [sp, #16]
  203244:	a9425bf5 	ldp	x21, x22, [sp, #32]
  203248:	a94363f7 	ldp	x23, x24, [sp, #48]
  20324c:	a9446bf9 	ldp	x25, x26, [sp, #64]
  203250:	a94573fb 	ldp	x27, x28, [sp, #80]
  203254:	a8c87bfd 	ldp	x29, x30, [sp], #128
  203258:	d65f03c0 	ret
  20325c:	9101e3e2 	add	x2, sp, #0x78
  203260:	52800041 	mov	w1, #0x2                   	// #2
  203264:	2a1303e0 	mov	w0, w19
  203268:	97fffde7 	bl	202a04 <psci_get_parent_pwr_domain_nodes>
  20326c:	b9407fe2 	ldr	w2, [sp, #124]
  203270:	6b02031f 	cmp	w24, w2
  203274:	2a0203e1 	mov	w1, w2
  203278:	54000060 	b.eq	203284 <psci_setup+0x2e4>  // b.none
  20327c:	d37cec20 	lsl	x0, x1, #4
  203280:	b8206a93 	str	w19, [x20, x0]
  203284:	8b011281 	add	x1, x20, x1, lsl #4
  203288:	b9400420 	ldr	w0, [x1, #4]
  20328c:	11000400 	add	w0, w0, #0x1
  203290:	b9000420 	str	w0, [x1, #4]
  203294:	b9407be0 	ldr	w0, [sp, #120]
  203298:	6b0002ff 	cmp	w23, w0
  20329c:	2a0003e1 	mov	w1, w0
  2032a0:	54000060 	b.eq	2032ac <psci_setup+0x30c>  // b.none
  2032a4:	d37cec23 	lsl	x3, x1, #4
  2032a8:	b8236a93 	str	w19, [x20, x3]
  2032ac:	8b011281 	add	x1, x20, x1, lsl #4
  2032b0:	11000673 	add	w19, w19, #0x1
  2032b4:	2a0203f8 	mov	w24, w2
  2032b8:	2a0003f7 	mov	w23, w0
  2032bc:	b9400423 	ldr	w3, [x1, #4]
  2032c0:	11000463 	add	w3, w3, #0x1
  2032c4:	b9000423 	str	w3, [x1, #4]
  2032c8:	17ffff91 	b	20310c <psci_setup+0x16c>

00000000002032cc <psci_smc_handler>:
  2032cc:	36000a67 	tbz	w7, #0, 203418 <psci_smc_handler+0x14c>
  2032d0:	b0000025 	adrp	x5, 208000 <__STACKS_START__+0x1e80>
  2032d4:	2a0003e4 	mov	w4, w0
  2032d8:	aa0103e0 	mov	x0, x1
  2032dc:	aa0203e1 	mov	x1, x2
  2032e0:	b94f74a5 	ldr	w5, [x5, #3956]
  2032e4:	aa0303e2 	mov	x2, x3
  2032e8:	52800023 	mov	w3, #0x1                   	// #1
  2032ec:	1ac42063 	lsl	w3, w3, w4
  2032f0:	6a05007f 	tst	w3, w5
  2032f4:	54000920 	b.eq	203418 <psci_smc_handler+0x14c>  // b.none
  2032f8:	a9bf7bfd 	stp	x29, x30, [sp, #-16]!
  2032fc:	910003fd 	mov	x29, sp
  203300:	37f00784 	tbnz	w4, #30, 2033f0 <psci_smc_handler+0x124>
  203304:	52af8003 	mov	w3, #0x7c000000            	// #2080374784
  203308:	0b030083 	add	w3, w4, w3
  20330c:	7100507f 	cmp	w3, #0x14
  203310:	54000628 	b.hi	2033d4 <psci_smc_handler+0x108>  // b.pmore
  203314:	d0000005 	adrp	x5, 205000 <__TEXT_END__>
  203318:	910520a5 	add	x5, x5, #0x148
  20331c:	386348a3 	ldrb	w3, [x5, w3, uxtw]
  203320:	10000065 	adr	x5, 20332c <psci_smc_handler+0x60>
  203324:	8b2388a3 	add	x3, x5, w3, sxtb #2
  203328:	d61f0060 	br	x3
  20332c:	97fffb72 	bl	2020f4 <psci_cpu_off>
  203330:	93407c00 	sxtw	x0, w0
  203334:	1400002d 	b	2033e8 <psci_smc_handler+0x11c>
  203338:	2a0203e2 	mov	w2, w2
  20333c:	2a0103e1 	mov	w1, w1
  203340:	97fffc13 	bl	20238c <psci_cpu_suspend>
  203344:	17fffffb 	b	203330 <psci_smc_handler+0x64>
  203348:	2a0203e2 	mov	w2, w2
  20334c:	2a0103e1 	mov	w1, w1
  203350:	2a0003e0 	mov	w0, w0
  203354:	97fffb6a 	bl	2020fc <psci_cpu_on>
  203358:	17fffff6 	b	203330 <psci_smc_handler+0x64>
  20335c:	2a0003e0 	mov	w0, w0
  203360:	97fffb48 	bl	202080 <psci_affinity_info>
  203364:	17fffff3 	b	203330 <psci_smc_handler+0x64>
  203368:	2a0003e0 	mov	w0, w0
  20336c:	97fffe37 	bl	202c48 <psci_migrate>
  203370:	17fffff0 	b	203330 <psci_smc_handler+0x64>
  203374:	97fffe54 	bl	202cc4 <psci_migrate_info_type>
  203378:	17ffffee 	b	203330 <psci_smc_handler+0x64>
  20337c:	a8c17bfd 	ldp	x29, x30, [sp], #16
  203380:	17fffe57 	b	202cdc <psci_migrate_info_up_cpu>
  203384:	2a0003e0 	mov	w0, w0
  203388:	97fffe5f 	bl	202d04 <psci_node_hw_state>
  20338c:	17ffffe9 	b	203330 <psci_smc_handler+0x64>
  203390:	2a0103e1 	mov	w1, w1
  203394:	2a0003e0 	mov	w0, w0
  203398:	94000072 	bl	203560 <psci_system_suspend>
  20339c:	17ffffe5 	b	203330 <psci_smc_handler+0x64>
  2033a0:	9400002b 	bl	20344c <psci_system_off>
  2033a4:	94000038 	bl	203484 <psci_system_reset>
  2033a8:	97fffd61 	bl	20292c <psci_features>
  2033ac:	17ffffe1 	b	203330 <psci_smc_handler+0x64>
  2033b0:	a8c17bfd 	ldp	x29, x30, [sp], #16
  2033b4:	17fffe0e 	b	202bec <psci_mem_protect>
  2033b8:	2a0103e1 	mov	w1, w1
  2033bc:	2a0003e0 	mov	w0, w0
  2033c0:	a8c17bfd 	ldp	x29, x30, [sp], #16
  2033c4:	17fffdf8 	b	202ba4 <psci_mem_chk_range>
  2033c8:	2a0103e1 	mov	w1, w1
  2033cc:	a8c17bfd 	ldp	x29, x30, [sp], #16
  2033d0:	1400003b 	b	2034bc <psci_system_reset2>
  2033d4:	2a0403e1 	mov	w1, w4
  2033d8:	d0000000 	adrp	x0, 205000 <__TEXT_END__>
  2033dc:	91114c00 	add	x0, x0, #0x453
  2033e0:	9400025f 	bl	203d5c <tf_log>
  2033e4:	92800000 	mov	x0, #0xffffffffffffffff    	// #-1
  2033e8:	a8c17bfd 	ldp	x29, x30, [sp], #16
  2033ec:	d65f03c0 	ret
  2033f0:	12b88003 	mov	w3, #0x3bffffff            	// #1006632959
  2033f4:	0b030083 	add	w3, w4, w3
  2033f8:	71004c7f 	cmp	w3, #0x13
  2033fc:	54fffec8 	b.hi	2033d4 <psci_smc_handler+0x108>  // b.pmore
  203400:	d0000005 	adrp	x5, 205000 <__TEXT_END__>
  203404:	910580a5 	add	x5, x5, #0x160
  203408:	386348a3 	ldrb	w3, [x5, w3, uxtw]
  20340c:	10000065 	adr	x5, 203418 <psci_smc_handler+0x14c>
  203410:	8b2388a3 	add	x3, x5, w3, sxtb #2
  203414:	d61f0060 	br	x3
  203418:	92800000 	mov	x0, #0xffffffffffffffff    	// #-1
  20341c:	d65f03c0 	ret
  203420:	320083e0 	mov	w0, #0x10001               	// #65537
  203424:	17fffff1 	b	2033e8 <psci_smc_handler+0x11c>

0000000000203428 <psci_spd_migrate_info>:
  203428:	b0000021 	adrp	x1, 208000 <__STACKS_START__+0x1e80>
  20342c:	f945e821 	ldr	x1, [x1, #3024]
  203430:	b40000a1 	cbz	x1, 203444 <psci_spd_migrate_info+0x1c>
  203434:	f9401821 	ldr	x1, [x1, #48]
  203438:	b4000061 	cbz	x1, 203444 <psci_spd_migrate_info+0x1c>
  20343c:	aa0103f0 	mov	x16, x1
  203440:	d61f0200 	br	x16
  203444:	12800000 	mov	w0, #0xffffffff            	// #-1
  203448:	d65f03c0 	ret

000000000020344c <psci_system_off>:
  20344c:	a9bf7bfd 	stp	x29, x30, [sp, #-16]!
  203450:	910003fd 	mov	x29, sp
  203454:	97fffe42 	bl	202d5c <psci_print_power_domain_map>
  203458:	b0000020 	adrp	x0, 208000 <__STACKS_START__+0x1e80>
  20345c:	f945e800 	ldr	x0, [x0, #3024]
  203460:	b4000080 	cbz	x0, 203470 <psci_system_off+0x24>
  203464:	f9401c00 	ldr	x0, [x0, #56]
  203468:	b4000040 	cbz	x0, 203470 <psci_system_off+0x24>
  20346c:	d63f0000 	blr	x0
  203470:	97fff798 	bl	2012d0 <console_flush>
  203474:	b0000020 	adrp	x0, 208000 <__STACKS_START__+0x1e80>
  203478:	f945e400 	ldr	x0, [x0, #3016]
  20347c:	f9402400 	ldr	x0, [x0, #72]
  203480:	d63f0000 	blr	x0

0000000000203484 <psci_system_reset>:
  203484:	a9bf7bfd 	stp	x29, x30, [sp, #-16]!
  203488:	910003fd 	mov	x29, sp
  20348c:	97fffe34 	bl	202d5c <psci_print_power_domain_map>
  203490:	b0000020 	adrp	x0, 208000 <__STACKS_START__+0x1e80>
  203494:	f945e800 	ldr	x0, [x0, #3024]
  203498:	b4000080 	cbz	x0, 2034a8 <psci_system_reset+0x24>
  20349c:	f9402000 	ldr	x0, [x0, #64]
  2034a0:	b4000040 	cbz	x0, 2034a8 <psci_system_reset+0x24>
  2034a4:	d63f0000 	blr	x0
  2034a8:	97fff78a 	bl	2012d0 <console_flush>
  2034ac:	b0000020 	adrp	x0, 208000 <__STACKS_START__+0x1e80>
  2034b0:	f945e400 	ldr	x0, [x0, #3016]
  2034b4:	f9402800 	ldr	x0, [x0, #80]
  2034b8:	d63f0000 	blr	x0

00000000002034bc <psci_system_reset2>:
  2034bc:	a9bd7bfd 	stp	x29, x30, [sp, #-48]!
  2034c0:	910003fd 	mov	x29, sp
  2034c4:	a90153f3 	stp	x19, x20, [sp, #16]
  2034c8:	2a0003f3 	mov	w19, w0
  2034cc:	aa0103f4 	mov	x20, x1
  2034d0:	f90013f5 	str	x21, [sp, #32]
  2034d4:	531f7e75 	lsr	w21, w19, #31
  2034d8:	97fffe21 	bl	202d5c <psci_print_power_domain_map>
  2034dc:	36f80233 	tbz	w19, #31, 203520 <psci_system_reset2+0x64>
  2034e0:	b0000020 	adrp	x0, 208000 <__STACKS_START__+0x1e80>
  2034e4:	f945e800 	ldr	x0, [x0, #3024]
  2034e8:	b5000300 	cbnz	x0, 203548 <psci_system_reset2+0x8c>
  2034ec:	97fff779 	bl	2012d0 <console_flush>
  2034f0:	b0000020 	adrp	x0, 208000 <__STACKS_START__+0x1e80>
  2034f4:	aa1403e2 	mov	x2, x20
  2034f8:	2a1303e1 	mov	w1, w19
  2034fc:	f945e400 	ldr	x0, [x0, #3016]
  203500:	f9405003 	ldr	x3, [x0, #160]
  203504:	2a1503e0 	mov	w0, w21
  203508:	d63f0060 	blr	x3
  20350c:	93407c00 	sxtw	x0, w0
  203510:	a94153f3 	ldp	x19, x20, [sp, #16]
  203514:	f94013f5 	ldr	x21, [sp, #32]
  203518:	a8c37bfd 	ldp	x29, x30, [sp], #48
  20351c:	d65f03c0 	ret
  203520:	350001d3 	cbnz	w19, 203558 <psci_system_reset2+0x9c>
  203524:	b0000020 	adrp	x0, 208000 <__STACKS_START__+0x1e80>
  203528:	f945e400 	ldr	x0, [x0, #3016]
  20352c:	f9404c01 	ldr	x1, [x0, #152]
  203530:	b4fffd81 	cbz	x1, 2034e0 <psci_system_reset2+0x24>
  203534:	52800000 	mov	w0, #0x0                   	// #0
  203538:	d63f0020 	blr	x1
  20353c:	36fffd20 	tbz	w0, #31, 2034e0 <psci_system_reset2+0x24>
  203540:	92800000 	mov	x0, #0xffffffffffffffff    	// #-1
  203544:	17fffff3 	b	203510 <psci_system_reset2+0x54>
  203548:	f9402000 	ldr	x0, [x0, #64]
  20354c:	b4fffd00 	cbz	x0, 2034ec <psci_system_reset2+0x30>
  203550:	d63f0000 	blr	x0
  203554:	17ffffe6 	b	2034ec <psci_system_reset2+0x30>
  203558:	92800020 	mov	x0, #0xfffffffffffffffe    	// #-2
  20355c:	17ffffed 	b	203510 <psci_system_reset2+0x54>

0000000000203560 <psci_system_suspend>:
  203560:	a9b87bfd 	stp	x29, x30, [sp, #-128]!
  203564:	910003fd 	mov	x29, sp
  203568:	a90153f3 	stp	x19, x20, [sp, #16]
  20356c:	aa0003f3 	mov	x19, x0
  203570:	aa0103f4 	mov	x20, x1
  203574:	97fffd70 	bl	202b34 <psci_is_last_on_cpu>
  203578:	350000c0 	cbnz	w0, 203590 <psci_system_suspend+0x30>
  20357c:	12800053 	mov	w19, #0xfffffffd            	// #-3
  203580:	2a1303e0 	mov	w0, w19
  203584:	a94153f3 	ldp	x19, x20, [sp, #16]
  203588:	a8c87bfd 	ldp	x29, x30, [sp], #128
  20358c:	d65f03c0 	ret
  203590:	aa1303e1 	mov	x1, x19
  203594:	aa1403e2 	mov	x2, x20
  203598:	9100a3e0 	add	x0, sp, #0x28
  20359c:	9400000f 	bl	2035d8 <psci_validate_entry_point>
  2035a0:	2a0003f3 	mov	w19, w0
  2035a4:	35fffee0 	cbnz	w0, 203580 <psci_system_suspend+0x20>
  2035a8:	910083e0 	add	x0, sp, #0x20
  2035ac:	97fffe38 	bl	202e8c <psci_query_sys_suspend_pwrstate>
  2035b0:	910083e0 	add	x0, sp, #0x20
  2035b4:	97fffd07 	bl	2029d0 <psci_find_target_suspend_lvl>
  2035b8:	7100041f 	cmp	w0, #0x1
  2035bc:	54fffe09 	b.ls	20357c <psci_system_suspend+0x1c>  // b.plast
  2035c0:	910083e2 	add	x2, sp, #0x20
  2035c4:	9100a3e0 	add	x0, sp, #0x28
  2035c8:	52800023 	mov	w3, #0x1                   	// #1
  2035cc:	52800041 	mov	w1, #0x2                   	// #2
  2035d0:	97fffbd2 	bl	202518 <psci_cpu_suspend_start>
  2035d4:	17ffffeb 	b	203580 <psci_system_suspend+0x20>

00000000002035d8 <psci_validate_entry_point>:
  2035d8:	a9bb7bfd 	stp	x29, x30, [sp, #-80]!
  2035dc:	910003fd 	mov	x29, sp
  2035e0:	a90153f3 	stp	x19, x20, [sp, #16]
  2035e4:	aa0003f4 	mov	x20, x0
  2035e8:	b0000020 	adrp	x0, 208000 <__STACKS_START__+0x1e80>
  2035ec:	aa0103f3 	mov	x19, x1
  2035f0:	a9025bf5 	stp	x21, x22, [sp, #32]
  2035f4:	f945e400 	ldr	x0, [x0, #3016]
  2035f8:	a90363f7 	stp	x23, x24, [sp, #48]
  2035fc:	aa0203f8 	mov	x24, x2
  203600:	f9403001 	ldr	x1, [x0, #96]
  203604:	f90023f9 	str	x25, [sp, #64]
  203608:	b5000361 	cbnz	x1, 203674 <psci_validate_entry_point+0x9c>
  20360c:	d53e1117 	mrs	x23, scr_el3
  203610:	d5381000 	mrs	x0, sctlr_el1
  203614:	927802f9 	and	x25, x23, #0x100
  203618:	37400437 	tbnz	w23, #8, 20369c <psci_validate_entry_point+0xc4>
  20361c:	f2670001 	ands	x1, x0, #0x2000000
  203620:	53196415 	ubfx	w21, w0, #25, #1
  203624:	52802021 	mov	w1, #0x101                 	// #257
  203628:	d2800076 	mov	x22, #0x3                   	// #3
  20362c:	72a00b01 	movk	w1, #0x58, lsl #16
  203630:	9a9f16c0 	csinc	x0, x22, xzr, ne  // ne = any
  203634:	29000281 	stp	w1, w0, [x20]
  203638:	91006280 	add	x0, x20, #0x18
  20363c:	f9000693 	str	x19, [x20, #8]
  203640:	d2800801 	mov	x1, #0x40                  	// #64
  203644:	97fff553 	bl	200b90 <zeromem>
  203648:	f9000e98 	str	x24, [x20, #24]
  20364c:	365002d7 	tbz	w23, #10, 2036a4 <psci_validate_entry_point+0xcc>
  203650:	37000193 	tbnz	w19, #0, 203680 <psci_validate_entry_point+0xa8>
  203654:	f100033f 	cmp	x25, #0x0
  203658:	52807821 	mov	w1, #0x3c1                 	// #961
  20365c:	1a9f07e0 	cset	w0, ne  // ne = any
  203660:	11000400 	add	w0, w0, #0x1
  203664:	2a000820 	orr	w0, w1, w0, lsl #2
  203668:	b9001280 	str	w0, [x20, #16]
  20366c:	52800000 	mov	w0, #0x0                   	// #0
  203670:	14000005 	b	203684 <psci_validate_entry_point+0xac>
  203674:	aa1303e0 	mov	x0, x19
  203678:	d63f0020 	blr	x1
  20367c:	34fffc80 	cbz	w0, 20360c <psci_validate_entry_point+0x34>
  203680:	12800100 	mov	w0, #0xfffffff7            	// #-9
  203684:	a94153f3 	ldp	x19, x20, [sp, #16]
  203688:	a9425bf5 	ldp	x21, x22, [sp, #32]
  20368c:	a94363f7 	ldp	x23, x24, [sp, #48]
  203690:	f94023f9 	ldr	x25, [sp, #64]
  203694:	a8c57bfd 	ldp	x29, x30, [sp], #80
  203698:	d65f03c0 	ret
  20369c:	d53c1000 	mrs	x0, sctlr_el2
  2036a0:	17ffffdf 	b	20361c <psci_validate_entry_point+0x44>
  2036a4:	52800140 	mov	w0, #0xa                   	// #10
  2036a8:	f100033f 	cmp	x25, #0x0
  2036ac:	1a8002d6 	csel	w22, w22, w0, eq  // eq = none
  2036b0:	531b0273 	ubfiz	w19, w19, #5, #1
  2036b4:	52803a00 	mov	w0, #0x1d0                 	// #464
  2036b8:	2a160273 	orr	w19, w19, w22
  2036bc:	2a152400 	orr	w0, w0, w21, lsl #9
  2036c0:	2a000273 	orr	w19, w19, w0
  2036c4:	b9001293 	str	w19, [x20, #16]
  2036c8:	17ffffe9 	b	20366c <psci_validate_entry_point+0x94>

00000000002036cc <psci_validate_mpidr>:
  2036cc:	a9bf7bfd 	stp	x29, x30, [sp, #-16]!
  2036d0:	910003fd 	mov	x29, sp
  2036d4:	97fff9dc 	bl	201e44 <plat_core_pos_by_mpidr>
  2036d8:	7100001f 	cmp	w0, #0x0
  2036dc:	a8c17bfd 	ldp	x29, x30, [sp], #16
  2036e0:	12800020 	mov	w0, #0xfffffffe            	// #-2
  2036e4:	1a9fb000 	csel	w0, w0, wzr, lt  // lt = tstop
  2036e8:	d65f03c0 	ret

00000000002036ec <psci_validate_power_state>:
  2036ec:	52bf9fc2 	mov	w2, #0xfcfe0000            	// #-50462720
  2036f0:	6a02001f 	tst	w0, w2
  2036f4:	540000c1 	b.ne	20370c <psci_validate_power_state+0x20>  // b.any
  2036f8:	b0000022 	adrp	x2, 208000 <__STACKS_START__+0x1e80>
  2036fc:	f945e442 	ldr	x2, [x2, #3016]
  203700:	f9402c42 	ldr	x2, [x2, #88]
  203704:	aa0203f0 	mov	x16, x2
  203708:	d61f0200 	br	x16
  20370c:	12800020 	mov	w0, #0xfffffffe            	// #-2
  203710:	d65f03c0 	ret

0000000000203714 <psci_warmboot_entrypoint>:
  203714:	a9bd7bfd 	stp	x29, x30, [sp, #-48]!
  203718:	910003fd 	mov	x29, sp
  20371c:	a90153f3 	stp	x19, x20, [sp, #16]
  203720:	97fff45c 	bl	200890 <plat_my_core_pos>
  203724:	790043ff 	strh	wzr, [sp, #32]
  203728:	39008bff 	strb	wzr, [sp, #34]
  20372c:	f90017ff 	str	xzr, [sp, #40]
  203730:	d53ed041 	mrs	x1, tpidr_el3
  203734:	b9401821 	ldr	w1, [x1, #24]
  203738:	7100043f 	cmp	w1, #0x1
  20373c:	540000c1 	b.ne	203754 <psci_warmboot_entrypoint+0x40>  // b.any
  203740:	d0000000 	adrp	x0, 205000 <__TEXT_END__>
  203744:	910d7c00 	add	x0, x0, #0x35f
  203748:	94000185 	bl	203d5c <tf_log>
  20374c:	97fff6e1 	bl	2012d0 <console_flush>
  203750:	97fff325 	bl	2003e4 <do_panic>
  203754:	2a0003f4 	mov	w20, w0
  203758:	d53ed041 	mrs	x1, tpidr_el3
  20375c:	b9401c33 	ldr	w19, [x1, #28]
  203760:	9100a3e2 	add	x2, sp, #0x28
  203764:	52800041 	mov	w1, #0x2                   	// #2
  203768:	71000e7f 	cmp	w19, #0x3
  20376c:	1a811273 	csel	w19, w19, w1, ne  // ne = any
  203770:	2a1303e1 	mov	w1, w19
  203774:	97fffca4 	bl	202a04 <psci_get_parent_pwr_domain_nodes>
  203778:	9100a3e1 	add	x1, sp, #0x28
  20377c:	2a1303e0 	mov	w0, w19
  203780:	97fffa25 	bl	202014 <psci_acquire_pwr_domain_locks>
  203784:	910083e1 	add	x1, sp, #0x20
  203788:	2a1303e0 	mov	w0, w19
  20378c:	97fffcb0 	bl	202a4c <psci_get_target_local_pwr_states>
  203790:	d53ed040 	mrs	x0, tpidr_el3
  203794:	b9401800 	ldr	w0, [x0, #24]
  203798:	910083e1 	add	x1, sp, #0x20
  20379c:	7100081f 	cmp	w0, #0x2
  2037a0:	2a1403e0 	mov	w0, w20
  2037a4:	54000141 	b.ne	2037cc <psci_warmboot_entrypoint+0xb8>  // b.any
  2037a8:	97fffa6c 	bl	202158 <psci_cpu_on_finish>
  2037ac:	2a1303e0 	mov	w0, w19
  2037b0:	97fffdd2 	bl	202ef8 <psci_set_pwr_domains_to_run>
  2037b4:	9100a3e1 	add	x1, sp, #0x28
  2037b8:	2a1303e0 	mov	w0, w19
  2037bc:	97fffdb9 	bl	202ea0 <psci_release_pwr_domain_locks>
  2037c0:	a94153f3 	ldp	x19, x20, [sp, #16]
  2037c4:	a8c37bfd 	ldp	x29, x30, [sp], #48
  2037c8:	d65f03c0 	ret
  2037cc:	97fffb2b 	bl	202478 <psci_cpu_suspend_finish>
  2037d0:	17fffff7 	b	2037ac <psci_warmboot_entrypoint+0x98>

00000000002037d4 <putchar>:
  2037d4:	a9be7bfd 	stp	x29, x30, [sp, #-32]!
  2037d8:	910003fd 	mov	x29, sp
  2037dc:	f9000bf3 	str	x19, [sp, #16]
  2037e0:	2a0003f3 	mov	w19, w0
  2037e4:	12001c00 	and	w0, w0, #0xff
  2037e8:	97fff6da 	bl	201350 <console_putc>
  2037ec:	7100001f 	cmp	w0, #0x0
  2037f0:	5a9fa260 	csinv	w0, w19, wzr, ge  // ge = tcont
  2037f4:	f9400bf3 	ldr	x19, [sp, #16]
  2037f8:	a8c27bfd 	ldp	x29, x30, [sp], #32
  2037fc:	d65f03c0 	ret

0000000000203800 <runtime_svc_init>:
  203800:	a9bb7bfd 	stp	x29, x30, [sp, #-80]!
  203804:	910003fd 	mov	x29, sp
  203808:	a90153f3 	stp	x19, x20, [sp, #16]
  20380c:	d0000013 	adrp	x19, 205000 <__TEXT_END__>
  203810:	911d8273 	add	x19, x19, #0x760
  203814:	a9025bf5 	stp	x21, x22, [sp, #32]
  203818:	d0000016 	adrp	x22, 205000 <__TEXT_END__>
  20381c:	911c82d6 	add	x22, x22, #0x720
  203820:	a90363f7 	stp	x23, x24, [sp, #48]
  203824:	cb160273 	sub	x19, x19, x22
  203828:	f1007e7f 	cmp	x19, #0x1f
  20382c:	f90023f9 	str	x25, [sp, #64]
  203830:	540001a9 	b.ls	203864 <runtime_svc_init+0x64>  // b.plast
  203834:	d0000018 	adrp	x24, 205000 <__TEXT_END__>
  203838:	d345fe73 	lsr	x19, x19, #5
  20383c:	910bd718 	add	x24, x24, #0x2f5
  203840:	52800015 	mov	w21, #0x0                   	// #0
  203844:	b0000037 	adrp	x23, 208000 <__STACKS_START__+0x1e80>
  203848:	913de2f7 	add	x23, x23, #0xf78
  20384c:	aa1703e0 	mov	x0, x23
  203850:	d2801002 	mov	x2, #0x80                  	// #128
  203854:	12800001 	mov	w1, #0xffffffff            	// #-1
  203858:	97fff8af 	bl	201b14 <memset>
  20385c:	eb35027f 	cmp	x19, w21, uxtb
  203860:	540000e8 	b.hi	20387c <runtime_svc_init+0x7c>  // b.pmore
  203864:	a94153f3 	ldp	x19, x20, [sp, #16]
  203868:	a9425bf5 	ldp	x21, x22, [sp, #32]
  20386c:	a94363f7 	ldp	x23, x24, [sp, #48]
  203870:	f94023f9 	ldr	x25, [sp, #64]
  203874:	a8c57bfd 	ldp	x29, x30, [sp], #80
  203878:	d65f03c0 	ret
  20387c:	d37b1eb9 	ubfiz	x25, x21, #5, #8
  203880:	8b1902d4 	add	x20, x22, x25
  203884:	38796ac1 	ldrb	w1, [x22, x25]
  203888:	39400680 	ldrb	w0, [x20, #1]
  20388c:	6b00003f 	cmp	w1, w0
  203890:	54000148 	b.hi	2038b8 <runtime_svc_init+0xb8>  // b.pmore
  203894:	7100fc1f 	cmp	w0, #0x3f
  203898:	54000108 	b.hi	2038b8 <runtime_svc_init+0xb8>  // b.pmore
  20389c:	39400a80 	ldrb	w0, [x20, #2]
  2038a0:	7100041f 	cmp	w0, #0x1
  2038a4:	540000a8 	b.hi	2038b8 <runtime_svc_init+0xb8>  // b.pmore
  2038a8:	f9400a80 	ldr	x0, [x20, #16]
  2038ac:	b5000120 	cbnz	x0, 2038d0 <runtime_svc_init+0xd0>
  2038b0:	f9400e80 	ldr	x0, [x20, #24]
  2038b4:	b50001e0 	cbnz	x0, 2038f0 <runtime_svc_init+0xf0>
  2038b8:	aa1403e1 	mov	x1, x20
  2038bc:	d0000000 	adrp	x0, 205000 <__TEXT_END__>
  2038c0:	910b3400 	add	x0, x0, #0x2cd
  2038c4:	94000126 	bl	203d5c <tf_log>
  2038c8:	97fff682 	bl	2012d0 <console_flush>
  2038cc:	97fff2c6 	bl	2003e4 <do_panic>
  2038d0:	d63f0000 	blr	x0
  2038d4:	340000e0 	cbz	w0, 2038f0 <runtime_svc_init+0xf0>
  2038d8:	f9400681 	ldr	x1, [x20, #8]
  2038dc:	aa1803e0 	mov	x0, x24
  2038e0:	9400011f 	bl	203d5c <tf_log>
  2038e4:	110006b5 	add	w21, w21, #0x1
  2038e8:	12001eb5 	and	w21, w21, #0xff
  2038ec:	17ffffdc 	b	20385c <runtime_svc_init+0x5c>
  2038f0:	39400a82 	ldrb	w2, [x20, #2]
  2038f4:	38796ac0 	ldrb	w0, [x22, x25]
  2038f8:	531a0043 	ubfiz	w3, w2, #6, #1
  2038fc:	39400682 	ldrb	w2, [x20, #1]
  203900:	12001400 	and	w0, w0, #0x3f
  203904:	2a030001 	orr	w1, w0, w3
  203908:	12001442 	and	w2, w2, #0x3f
  20390c:	2a0103e0 	mov	w0, w1
  203910:	2a030042 	orr	w2, w2, w3
  203914:	8b0102e1 	add	x1, x23, x1
  203918:	6b02001f 	cmp	w0, w2
  20391c:	54fffe48 	b.hi	2038e4 <runtime_svc_init+0xe4>  // b.pmore
  203920:	11000400 	add	w0, w0, #0x1
  203924:	38001435 	strb	w21, [x1], #1
  203928:	12001c00 	and	w0, w0, #0xff
  20392c:	17fffffb 	b	203918 <runtime_svc_init+0x118>

0000000000203930 <setup_mmu_cfg>:
  203930:	91000484 	add	x4, x4, #0x1
  203934:	a9bf7bfd 	stp	x29, x30, [sp, #-16]!
  203938:	dac00087 	rbit	x7, x4
  20393c:	910003fd 	mov	x29, sp
  203940:	dac010e7 	clz	x7, x7
  203944:	aa0003e6 	mov	x6, x0
  203948:	52800804 	mov	w4, #0x40                  	// #64
  20394c:	aa0303e0 	mov	x0, x3
  203950:	4b070084 	sub	w4, w4, w7
  203954:	37080061 	tbnz	w1, #1, 203960 <setup_mmu_cfg+0x30>
  203958:	5286a001 	mov	w1, #0x3500                	// #13568
  20395c:	2a010084 	orr	w4, w4, w1
  203960:	93407c81 	sxtw	x1, w4
  203964:	940000eb 	bl	203d10 <tcr_physical_addr_size_bits>
  203968:	aa008023 	orr	x3, x1, x0, lsl #32
  20396c:	aa004021 	orr	x1, x1, x0, lsl #16
  203970:	b2690063 	orr	x3, x3, #0x800000
  203974:	710004bf 	cmp	w5, #0x1
  203978:	d2b01000 	mov	x0, #0x80800000            	// #2155872256
  20397c:	aa000021 	orr	x1, x1, x0
  203980:	9a831021 	csel	x1, x1, x3, ne  // ne = any
  203984:	d5380740 	mrs	x0, id_aa64mmfr2_el1
  203988:	f2400c1f 	tst	x0, #0xf
  20398c:	54000040 	b.eq	203994 <setup_mmu_cfg+0x64>  // b.none
  203990:	b2400042 	orr	x2, x2, #0x1
  203994:	d2809fe0 	mov	x0, #0x4ff                 	// #1279
  203998:	a8c17bfd 	ldp	x29, x30, [sp], #16
  20399c:	f2a00880 	movk	x0, #0x44, lsl #16
  2039a0:	a90004c0 	stp	x0, x1, [x6]
  2039a4:	f90008c2 	str	x2, [x6, #16]
  2039a8:	d65f03c0 	ret

00000000002039ac <sp_configure_mmu_el3>:
  2039ac:	a9bf7bfd 	stp	x29, x30, [sp, #-16]!
  2039b0:	d2a00401 	mov	x1, #0x200000              	// #2097152
  2039b4:	52800143 	mov	w3, #0xa                   	// #10
  2039b8:	910003fd 	mov	x29, sp
  2039bc:	aa0103e0 	mov	x0, x1
  2039c0:	d2a00202 	mov	x2, #0x100000              	// #1048576
  2039c4:	97fff885 	bl	201bd8 <mmap_add_region>
  2039c8:	b0ffffe1 	adrp	x1, 200000 <bl31_entrypoint>
  2039cc:	d0000002 	adrp	x2, 205000 <__TEXT_END__>
  2039d0:	91000021 	add	x1, x1, #0x0
  2039d4:	91000042 	add	x2, x2, #0x0
  2039d8:	cb010042 	sub	x2, x2, x1
  2039dc:	aa0103e0 	mov	x0, x1
  2039e0:	52800043 	mov	w3, #0x2                   	// #2
  2039e4:	97fff87d 	bl	201bd8 <mmap_add_region>
  2039e8:	d0000001 	adrp	x1, 205000 <__TEXT_END__>
  2039ec:	f0000002 	adrp	x2, 206000 <__RODATA_END__>
  2039f0:	91000021 	add	x1, x1, #0x0
  2039f4:	91000042 	add	x2, x2, #0x0
  2039f8:	aa0103e0 	mov	x0, x1
  2039fc:	cb010042 	sub	x2, x2, x1
  203a00:	52800443 	mov	w3, #0x22                  	// #34
  203a04:	97fff875 	bl	201bd8 <mmap_add_region>
  203a08:	d0000000 	adrp	x0, 205000 <__TEXT_END__>
  203a0c:	91020000 	add	x0, x0, #0x80
  203a10:	97fff85f 	bl	201b8c <mmap_add>
  203a14:	97fff7e0 	bl	201994 <init_xlat_tables>
  203a18:	a8c17bfd 	ldp	x29, x30, [sp], #16
  203a1c:	52800000 	mov	w0, #0x0                   	// #0
  203a20:	17fff680 	b	201420 <enable_mmu_el3>

0000000000203a24 <sp_console_setup>:
  203a24:	f0000000 	adrp	x0, 206000 <__RODATA_END__>
  203a28:	91042000 	add	x0, x0, #0x108
  203a2c:	d2812001 	mov	x1, #0x900                 	// #2304
  203a30:	f2bf0001 	movk	x1, #0xf800, lsl #16
  203a34:	f9001401 	str	x1, [x0, #40]
  203a38:	17fff66d 	b	2013ec <console_register>

0000000000203a3c <sp_cpu_off>:
  203a3c:	aa0003e3 	mov	x3, x0
  203a40:	52800162 	mov	w2, #0xb                   	// #11
  203a44:	d0000001 	adrp	x1, 205000 <__TEXT_END__>
  203a48:	d0000000 	adrp	x0, 205000 <__TEXT_END__>
  203a4c:	91131021 	add	x1, x1, #0x4c4
  203a50:	9112cc00 	add	x0, x0, #0x4b3
  203a54:	140000c2 	b	203d5c <tf_log>

0000000000203a58 <sp_disable_secondary_cpus>:
  203a58:	aa0003e3 	mov	x3, x0
  203a5c:	528002a2 	mov	w2, #0x15                  	// #21
  203a60:	d0000001 	adrp	x1, 205000 <__TEXT_END__>
  203a64:	d0000000 	adrp	x0, 205000 <__TEXT_END__>
  203a68:	91133c21 	add	x1, x1, #0x4cf
  203a6c:	9112cc00 	add	x0, x0, #0x4b3
  203a70:	140000bb 	b	203d5c <tf_log>

0000000000203a74 <sp_pwr_domain_on_finish>:
  203a74:	a9be7bfd 	stp	x29, x30, [sp, #-32]!
  203a78:	910003fd 	mov	x29, sp
  203a7c:	a90153f3 	stp	x19, x20, [sp, #16]
  203a80:	97fff384 	bl	200890 <plat_my_core_pos>
  203a84:	d2bf0014 	mov	x20, #0xf8000000            	// #4160749568
  203a88:	2a0003f3 	mov	w19, w0
  203a8c:	52994000 	mov	w0, #0xca00                	// #51712
  203a90:	72b62620 	movk	w0, #0xb131, lsl #16
  203a94:	b9000280 	str	w0, [x20]
  203a98:	b9000293 	str	w19, [x20]
  203a9c:	71000e7f 	cmp	w19, #0x3
  203aa0:	540005c8 	b.hi	203b58 <sp_pwr_domain_on_finish+0xe4>  // b.pmore
  203aa4:	11000400 	add	w0, w0, #0x1
  203aa8:	b9000280 	str	w0, [x20]
  203aac:	529ffe00 	mov	w0, #0xfff0                	// #65520
  203ab0:	129fe001 	mov	w1, #0xffff00ff            	// #-65281
  203ab4:	72bf4460 	movk	w0, #0xfa23, lsl #16
  203ab8:	93407e63 	sxtw	x3, w19
  203abc:	4b130c00 	sub	w0, w0, w19, lsl #3
  203ac0:	b0000022 	adrp	x2, 208000 <__STACKS_START__+0x1e80>
  203ac4:	91322042 	add	x2, x2, #0xc88
  203ac8:	b9400004 	ldr	w4, [x0]
  203acc:	d2821000 	mov	x0, #0x1080                	// #4224
  203ad0:	f2bf4000 	movk	x0, #0xfa00, lsl #16
  203ad4:	b9000284 	str	w4, [x20]
  203ad8:	2a0403e4 	mov	w4, w4
  203adc:	b9000001 	str	w1, [x0]
  203ae0:	52801001 	mov	w1, #0x80                  	// #128
  203ae4:	b90f8401 	str	w1, [x0, #3972]
  203ae8:	d2840000 	mov	x0, #0x2000                	// #8192
  203aec:	f2bf4000 	movk	x0, #0xfa00, lsl #16
  203af0:	52800161 	mov	w1, #0xb                   	// #11
  203af4:	b9000001 	str	w1, [x0]
  203af8:	d2800b00 	mov	x0, #0x58                  	// #88
  203afc:	9b007c63 	mul	x3, x3, x0
  203b00:	9ba07e60 	umull	x0, w19, w0
  203b04:	8b030041 	add	x1, x2, x3
  203b08:	8b000040 	add	x0, x2, x0
  203b0c:	f9000424 	str	x4, [x1, #8]
  203b10:	52807924 	mov	w4, #0x3c9                 	// #969
  203b14:	b9001024 	str	w4, [x1, #16]
  203b18:	d2a00804 	mov	x4, #0x400000              	// #4194304
  203b1c:	f9000c24 	str	x4, [x1, #24]
  203b20:	a9027c3f 	stp	xzr, xzr, [x1, #32]
  203b24:	f900183f 	str	xzr, [x1, #48]
  203b28:	d2802021 	mov	x1, #0x101                 	// #257
  203b2c:	f2a00b01 	movk	x1, #0x58, lsl #16
  203b30:	f2c00021 	movk	x1, #0x1, lsl #32
  203b34:	f8236841 	str	x1, [x2, x3]
  203b38:	52994041 	mov	w1, #0xca02                	// #51714
  203b3c:	72b62621 	movk	w1, #0xb131, lsl #16
  203b40:	b9000281 	str	w1, [x20]
  203b44:	97fff52d 	bl	200ff8 <cm_init_my_context>
  203b48:	52994120 	mov	w0, #0xca09                	// #51721
  203b4c:	72b62620 	movk	w0, #0xb131, lsl #16
  203b50:	b9000280 	str	w0, [x20]
  203b54:	b9000293 	str	w19, [x20]
  203b58:	a94153f3 	ldp	x19, x20, [sp, #16]
  203b5c:	a8c27bfd 	ldp	x29, x30, [sp], #32
  203b60:	d65f03c0 	ret

0000000000203b64 <sp_pwr_down_wfi>:
  203b64:	a9bf7bfd 	stp	x29, x30, [sp, #-16]!
  203b68:	910003fd 	mov	x29, sp
  203b6c:	d53800a0 	mrs	x0, mpidr_el1
  203b70:	97ffffb3 	bl	203a3c <sp_cpu_off>
  203b74:	d503207f 	wfi
  203b78:	17ffffff 	b	203b74 <sp_pwr_down_wfi+0x10>

0000000000203b7c <sp_read_soc_id>:
  203b7c:	d2bf0000 	mov	x0, #0xf8000000            	// #4160749568
  203b80:	b9400000 	ldr	w0, [x0]
  203b84:	d65f03c0 	ret

0000000000203b88 <sp_system_off>:
  203b88:	a9be7bfd 	stp	x29, x30, [sp, #-32]!
  203b8c:	910003fd 	mov	x29, sp
  203b90:	f9000bf3 	str	x19, [sp, #16]
  203b94:	97fff6af 	bl	201650 <gicv2_cpuif_disable>
  203b98:	d0000013 	adrp	x19, 205000 <__TEXT_END__>
  203b9c:	91148273 	add	x19, x19, #0x520
  203ba0:	aa1303e1 	mov	x1, x19
  203ba4:	52800b42 	mov	w2, #0x5a                  	// #90
  203ba8:	d0000000 	adrp	x0, 205000 <__TEXT_END__>
  203bac:	9113b000 	add	x0, x0, #0x4ec
  203bb0:	9400006b 	bl	203d5c <tf_log>
  203bb4:	d53800a0 	mrs	x0, mpidr_el1
  203bb8:	97ffffa8 	bl	203a58 <sp_disable_secondary_cpus>
  203bbc:	d0000000 	adrp	x0, 205000 <__TEXT_END__>
  203bc0:	aa1303e1 	mov	x1, x19
  203bc4:	91142800 	add	x0, x0, #0x50a
  203bc8:	94000065 	bl	203d5c <tf_log>
  203bcc:	d503207f 	wfi
  203bd0:	17ffffff 	b	203bcc <sp_system_off+0x44>

0000000000203bd4 <sp_system_reset>:
  203bd4:	a9be7bfd 	stp	x29, x30, [sp, #-32]!
  203bd8:	910003fd 	mov	x29, sp
  203bdc:	f9000bf3 	str	x19, [sp, #16]
  203be0:	97fff69c 	bl	201650 <gicv2_cpuif_disable>
  203be4:	d0000013 	adrp	x19, 205000 <__TEXT_END__>
  203be8:	9114ba73 	add	x19, x19, #0x52e
  203bec:	aa1303e1 	mov	x1, x19
  203bf0:	52800d62 	mov	w2, #0x6b                  	// #107
  203bf4:	d0000000 	adrp	x0, 205000 <__TEXT_END__>
  203bf8:	9113b000 	add	x0, x0, #0x4ec
  203bfc:	94000058 	bl	203d5c <tf_log>
  203c00:	d2802000 	mov	x0, #0x100                 	// #256
  203c04:	320083e1 	mov	w1, #0x10001               	// #65537
  203c08:	f2bf0000 	movk	x0, #0xf800, lsl #16
  203c0c:	b9000001 	str	w1, [x0]
  203c10:	52807d00 	mov	w0, #0x3e8                 	// #1000
  203c14:	97fff7a8 	bl	201ab4 <mdelay>
  203c18:	d0000000 	adrp	x0, 205000 <__TEXT_END__>
  203c1c:	aa1303e1 	mov	x1, x19
  203c20:	9113dc00 	add	x0, x0, #0x4f7
  203c24:	9400004e 	bl	203d5c <tf_log>
  203c28:	d503207f 	wfi
  203c2c:	17ffffff 	b	203c28 <sp_system_reset+0x54>

0000000000203c30 <std_svc_setup>:
  203c30:	a9bf7bfd 	stp	x29, x30, [sp, #-16]!
  203c34:	529ffc00 	mov	w0, #0xffe0                	// #65504
  203c38:	910003fd 	mov	x29, sp
  203c3c:	97fff624 	bl	2014cc <get_arm_std_svc_args>
  203c40:	97fffcd8 	bl	202fa0 <psci_setup>
  203c44:	7100001f 	cmp	w0, #0x0
  203c48:	1a9f07e0 	cset	w0, ne  // ne = any
  203c4c:	a8c17bfd 	ldp	x29, x30, [sp], #16
  203c50:	d65f03c0 	ret

0000000000203c54 <std_svc_smc_handler>:
  203c54:	a9be7bfd 	stp	x29, x30, [sp, #-32]!
  203c58:	721b281f 	tst	w0, #0xffe0
  203c5c:	910003fd 	mov	x29, sp
  203c60:	f9000bf3 	str	x19, [sp, #16]
  203c64:	aa0603f3 	mov	x19, x6
  203c68:	54000081 	b.ne	203c78 <std_svc_smc_handler+0x24>  // b.any
  203c6c:	97fffd98 	bl	2032cc <psci_smc_handler>
  203c70:	f9000260 	str	x0, [x19]
  203c74:	1400001d 	b	203ce8 <std_svc_smc_handler+0x94>
  203c78:	2a0003e8 	mov	w8, w0
  203c7c:	529fe020 	mov	w0, #0xff01                	// #65281
  203c80:	72b08000 	movk	w0, #0x8400, lsl #16
  203c84:	6b00011f 	cmp	w8, w0
  203c88:	54000140 	b.eq	203cb0 <std_svc_smc_handler+0x5c>  // b.none
  203c8c:	11000800 	add	w0, w0, #0x2
  203c90:	6b00011f 	cmp	w8, w0
  203c94:	54000260 	b.eq	203ce0 <std_svc_smc_handler+0x8c>  // b.none
  203c98:	529fe000 	mov	w0, #0xff00                	// #65280
  203c9c:	72b08000 	movk	w0, #0x8400, lsl #16
  203ca0:	6b00011f 	cmp	w8, w0
  203ca4:	540002a1 	b.ne	203cf8 <std_svc_smc_handler+0xa4>  // b.any
  203ca8:	d2800240 	mov	x0, #0x12                  	// #18
  203cac:	17fffff1 	b	203c70 <std_svc_smc_handler+0x1c>
  203cb0:	d2882ac0 	mov	x0, #0x4156                	// #16726
  203cb4:	f2bc5ec0 	movk	x0, #0xe2f6, lsl #16
  203cb8:	f9000cc0 	str	x0, [x6, #24]
  203cbc:	d285b5c0 	mov	x0, #0x2dae                	// #11694
  203cc0:	f2bf7800 	movk	x0, #0xfbc0, lsl #16
  203cc4:	f90008c0 	str	x0, [x6, #16]
  203cc8:	d29f0c60 	mov	x0, #0xf863                	// #63587
  203ccc:	f2a8fd00 	movk	x0, #0x47e8, lsl #16
  203cd0:	f90004c0 	str	x0, [x6, #8]
  203cd4:	d2920b60 	mov	x0, #0x905b                	// #36955
  203cd8:	f2a211a0 	movk	x0, #0x108d, lsl #16
  203cdc:	17ffffe5 	b	203c70 <std_svc_smc_handler+0x1c>
  203ce0:	d2800020 	mov	x0, #0x1                   	// #1
  203ce4:	a90000df 	stp	xzr, x0, [x6]
  203ce8:	aa1303e0 	mov	x0, x19
  203cec:	f9400bf3 	ldr	x19, [sp, #16]
  203cf0:	a8c27bfd 	ldp	x29, x30, [sp], #32
  203cf4:	d65f03c0 	ret
  203cf8:	2a0803e1 	mov	w1, w8
  203cfc:	d0000000 	adrp	x0, 205000 <__TEXT_END__>
  203d00:	91165000 	add	x0, x0, #0x594
  203d04:	94000016 	bl	203d5c <tf_log>
  203d08:	92800000 	mov	x0, #0xffffffffffffffff    	// #-1
  203d0c:	17ffffd9 	b	203c70 <std_svc_smc_handler+0x1c>

0000000000203d10 <tcr_physical_addr_size_bits>:
  203d10:	f2540c1f 	tst	x0, #0xf00000000000
  203d14:	54000141 	b.ne	203d3c <tcr_physical_addr_size_bits+0x2c>  // b.any
  203d18:	f256041f 	tst	x0, #0xc0000000000
  203d1c:	54000141 	b.ne	203d44 <tcr_physical_addr_size_bits+0x34>  // b.any
  203d20:	f258041f 	tst	x0, #0x30000000000
  203d24:	54000141 	b.ne	203d4c <tcr_physical_addr_size_bits+0x3c>  // b.any
  203d28:	f25c0c1f 	tst	x0, #0xf000000000
  203d2c:	54000141 	b.ne	203d54 <tcr_physical_addr_size_bits+0x44>  // b.any
  203d30:	f2600c1f 	tst	x0, #0xf00000000
  203d34:	9a9f07e0 	cset	x0, ne  // ne = any
  203d38:	d65f03c0 	ret
  203d3c:	d28000a0 	mov	x0, #0x5                   	// #5
  203d40:	17fffffe 	b	203d38 <tcr_physical_addr_size_bits+0x28>
  203d44:	d2800080 	mov	x0, #0x4                   	// #4
  203d48:	17fffffc 	b	203d38 <tcr_physical_addr_size_bits+0x28>
  203d4c:	d2800060 	mov	x0, #0x3                   	// #3
  203d50:	17fffffa 	b	203d38 <tcr_physical_addr_size_bits+0x28>
  203d54:	d2800040 	mov	x0, #0x2                   	// #2
  203d58:	17fffff8 	b	203d38 <tcr_physical_addr_size_bits+0x28>

0000000000203d5c <tf_log>:
  203d5c:	a9b67bfd 	stp	x29, x30, [sp, #-160]!
  203d60:	910003fd 	mov	x29, sp
  203d64:	a90153f3 	stp	x19, x20, [sp, #16]
  203d68:	aa0003f4 	mov	x20, x0
  203d6c:	a9068be1 	stp	x1, x2, [sp, #104]
  203d70:	f0000001 	adrp	x1, 206000 <__RODATA_END__>
  203d74:	a90793e3 	stp	x3, x4, [sp, #120]
  203d78:	b9416421 	ldr	w1, [x1, #356]
  203d7c:	a9089be5 	stp	x5, x6, [sp, #136]
  203d80:	f9004fe7 	str	x7, [sp, #152]
  203d84:	39400000 	ldrb	w0, [x0]
  203d88:	6b00003f 	cmp	w1, w0
  203d8c:	54000263 	b.cc	203dd8 <tf_log+0x7c>  // b.lo, b.ul, b.last
  203d90:	97fff877 	bl	201f6c <plat_log_get_prefix>
  203d94:	aa0003f3 	mov	x19, x0
  203d98:	39400260 	ldrb	w0, [x19]
  203d9c:	35000240 	cbnz	w0, 203de4 <tf_log+0x88>
  203da0:	910283e0 	add	x0, sp, #0xa0
  203da4:	a90403e0 	stp	x0, x0, [sp, #64]
  203da8:	910183e0 	add	x0, sp, #0x60
  203dac:	f9002be0 	str	x0, [sp, #80]
  203db0:	128006e0 	mov	w0, #0xffffffc8            	// #-56
  203db4:	b9005be0 	str	w0, [sp, #88]
  203db8:	b9005fff 	str	wzr, [sp, #92]
  203dbc:	a94407e0 	ldp	x0, x1, [sp, #64]
  203dc0:	a90207e0 	stp	x0, x1, [sp, #32]
  203dc4:	a94507e0 	ldp	x0, x1, [sp, #80]
  203dc8:	a90307e0 	stp	x0, x1, [sp, #48]
  203dcc:	910083e1 	add	x1, sp, #0x20
  203dd0:	91000680 	add	x0, x20, #0x1
  203dd4:	94000058 	bl	203f34 <vprintf>
  203dd8:	a94153f3 	ldp	x19, x20, [sp, #16]
  203ddc:	a8ca7bfd 	ldp	x29, x30, [sp], #160
  203de0:	d65f03c0 	ret
  203de4:	91000673 	add	x19, x19, #0x1
  203de8:	97fffe7b 	bl	2037d4 <putchar>
  203dec:	17ffffeb 	b	203d98 <tf_log+0x3c>

0000000000203df0 <timer_init>:
  203df0:	b0000021 	adrp	x1, 208000 <__STACKS_START__+0x1e80>
  203df4:	f905b820 	str	x0, [x1, #2928]
  203df8:	d65f03c0 	ret

0000000000203dfc <udelay>:
  203dfc:	a9bd7bfd 	stp	x29, x30, [sp, #-48]!
  203e00:	910003fd 	mov	x29, sp
  203e04:	a90153f3 	stp	x19, x20, [sp, #16]
  203e08:	b0000034 	adrp	x20, 208000 <__STACKS_START__+0x1e80>
  203e0c:	2a0003f3 	mov	w19, w0
  203e10:	f945ba80 	ldr	x0, [x20, #2928]
  203e14:	f9400000 	ldr	x0, [x0]
  203e18:	f90013f5 	str	x21, [sp, #32]
  203e1c:	d63f0000 	blr	x0
  203e20:	2a0003f5 	mov	w21, w0
  203e24:	f945ba82 	ldr	x2, [x20, #2928]
  203e28:	29410841 	ldp	w1, w2, [x2, #8]
  203e2c:	d1000420 	sub	x0, x1, #0x1
  203e30:	9ba20273 	umaddl	x19, w19, w2, x0
  203e34:	9ac10a73 	udiv	x19, x19, x1
  203e38:	91000673 	add	x19, x19, #0x1
  203e3c:	f945ba80 	ldr	x0, [x20, #2928]
  203e40:	f9400000 	ldr	x0, [x0]
  203e44:	d63f0000 	blr	x0
  203e48:	4b0002a1 	sub	w1, w21, w0
  203e4c:	eb13003f 	cmp	x1, x19
  203e50:	54ffff63 	b.cc	203e3c <udelay+0x40>  // b.lo, b.ul, b.last
  203e54:	a94153f3 	ldp	x19, x20, [sp, #16]
  203e58:	f94013f5 	ldr	x21, [sp, #32]
  203e5c:	a8c37bfd 	ldp	x29, x30, [sp], #48
  203e60:	d65f03c0 	ret

0000000000203e64 <unsigned_num_print>:
  203e64:	a9ba7bfd 	stp	x29, x30, [sp, #-96]!
  203e68:	2a0103e1 	mov	w1, w1
  203e6c:	910003fd 	mov	x29, sp
  203e70:	a9025bf5 	stp	x21, x22, [sp, #32]
  203e74:	910123f5 	add	x21, sp, #0x48
  203e78:	f9001bf7 	str	x23, [sp, #48]
  203e7c:	12001c57 	and	w23, w2, #0xff
  203e80:	a90153f3 	stp	x19, x20, [sp, #16]
  203e84:	2a0303f3 	mov	w19, w3
  203e88:	d2800003 	mov	x3, #0x0                   	// #0
  203e8c:	9ac10807 	udiv	x7, x0, x1
  203e90:	11000474 	add	w20, w3, #0x1
  203e94:	9b0180e6 	msub	x6, x7, x1, x0
  203e98:	12001cc4 	and	w4, w6, #0xff
  203e9c:	f10024df 	cmp	x6, #0x9
  203ea0:	1100c085 	add	w5, w4, #0x30
  203ea4:	11015c84 	add	w4, w4, #0x57
  203ea8:	12001ca5 	and	w5, w5, #0xff
  203eac:	12001c84 	and	w4, w4, #0xff
  203eb0:	1a858084 	csel	w4, w4, w5, hi  // hi = pmore
  203eb4:	38356864 	strb	w4, [x3, x21]
  203eb8:	eb00003f 	cmp	x1, x0
  203ebc:	91000463 	add	x3, x3, #0x1
  203ec0:	540001c9 	b.ls	203ef8 <unsigned_num_print+0x94>  // b.plast
  203ec4:	7100027f 	cmp	w19, #0x0
  203ec8:	540002cc 	b.gt	203f20 <unsigned_num_print+0xbc>
  203ecc:	52800013 	mov	w19, #0x0                   	// #0
  203ed0:	93407e96 	sxtw	x22, w20
  203ed4:	d10006d6 	sub	x22, x22, #0x1
  203ed8:	310006df 	cmn	w22, #0x1
  203edc:	54000261 	b.ne	203f28 <unsigned_num_print+0xc4>  // b.any
  203ee0:	0b140260 	add	w0, w19, w20
  203ee4:	a94153f3 	ldp	x19, x20, [sp, #16]
  203ee8:	a9425bf5 	ldp	x21, x22, [sp, #32]
  203eec:	f9401bf7 	ldr	x23, [sp, #48]
  203ef0:	a8c67bfd 	ldp	x29, x30, [sp], #96
  203ef4:	d65f03c0 	ret
  203ef8:	aa0703e0 	mov	x0, x7
  203efc:	17ffffe4 	b	203e8c <unsigned_num_print+0x28>
  203f00:	510006d6 	sub	w22, w22, #0x1
  203f04:	2a1703e0 	mov	w0, w23
  203f08:	97fffe33 	bl	2037d4 <putchar>
  203f0c:	6b1402df 	cmp	w22, w20
  203f10:	54ffff8c 	b.gt	203f00 <unsigned_num_print+0x9c>
  203f14:	6b140260 	subs	w0, w19, w20
  203f18:	1a9fa013 	csel	w19, w0, wzr, ge  // ge = tcont
  203f1c:	17ffffed 	b	203ed0 <unsigned_num_print+0x6c>
  203f20:	2a1303f6 	mov	w22, w19
  203f24:	17fffffa 	b	203f0c <unsigned_num_print+0xa8>
  203f28:	38766aa0 	ldrb	w0, [x21, x22]
  203f2c:	97fffe2a 	bl	2037d4 <putchar>
  203f30:	17ffffe9 	b	203ed4 <unsigned_num_print+0x70>

0000000000203f34 <vprintf>:
  203f34:	a9b97bfd 	stp	x29, x30, [sp, #-112]!
  203f38:	910003fd 	mov	x29, sp
  203f3c:	a90153f3 	stp	x19, x20, [sp, #16]
  203f40:	b9401834 	ldr	w20, [x1, #24]
  203f44:	a90363f7 	stp	x23, x24, [sp, #48]
  203f48:	a9405c33 	ldp	x19, x23, [x1]
  203f4c:	a9025bf5 	stp	x21, x22, [sp, #32]
  203f50:	aa0003f6 	mov	x22, x0
  203f54:	a90573fb 	stp	x27, x28, [sp, #80]
  203f58:	d000001b 	adrp	x27, 205000 <__TEXT_END__>
  203f5c:	9105d37b 	add	x27, x27, #0x174
  203f60:	52800015 	mov	w21, #0x0                   	// #0
  203f64:	a9046bf9 	stp	x25, x26, [sp, #64]
  203f68:	5280001a 	mov	w26, #0x0                   	// #0
  203f6c:	394002c0 	ldrb	w0, [x22]
  203f70:	35000120 	cbnz	w0, 203f94 <vprintf+0x60>
  203f74:	2a1503e0 	mov	w0, w21
  203f78:	a94153f3 	ldp	x19, x20, [sp, #16]
  203f7c:	a9425bf5 	ldp	x21, x22, [sp, #32]
  203f80:	a94363f7 	ldp	x23, x24, [sp, #48]
  203f84:	a9446bf9 	ldp	x25, x26, [sp, #64]
  203f88:	a94573fb 	ldp	x27, x28, [sp, #80]
  203f8c:	a8c77bfd 	ldp	x29, x30, [sp], #112
  203f90:	d65f03c0 	ret
  203f94:	910006d6 	add	x22, x22, #0x1
  203f98:	7100941f 	cmp	w0, #0x25
  203f9c:	54001b81 	b.ne	20430c <vprintf+0x3d8>  // b.any
  203fa0:	52800018 	mov	w24, #0x0                   	// #0
  203fa4:	52800000 	mov	w0, #0x0                   	// #0
  203fa8:	14000002 	b	203fb0 <vprintf+0x7c>
  203fac:	5280061a 	mov	w26, #0x30                  	// #48
  203fb0:	394002c1 	ldrb	w1, [x22]
  203fb4:	7100c03f 	cmp	w1, #0x30
  203fb8:	54001940 	b.eq	2042e0 <vprintf+0x3ac>  // b.none
  203fbc:	51019021 	sub	w1, w1, #0x64
  203fc0:	12001c22 	and	w2, w1, #0xff
  203fc4:	7100585f 	cmp	w2, #0x16
  203fc8:	54001a88 	b.hi	204318 <vprintf+0x3e4>  // b.pmore
  203fcc:	7100583f 	cmp	w1, #0x16
  203fd0:	54001a48 	b.hi	204318 <vprintf+0x3e4>  // b.pmore
  203fd4:	78615b61 	ldrh	w1, [x27, w1, uxtw #1]
  203fd8:	10000062 	adr	x2, 203fe4 <vprintf+0xb0>
  203fdc:	8b21a841 	add	x1, x2, w1, sxth #2
  203fe0:	d61f0020 	br	x1
  203fe4:	7100041f 	cmp	w0, #0x1
  203fe8:	5400022d 	b.le	20402c <vprintf+0xf8>
  203fec:	37f802f4 	tbnz	w20, #31, 204048 <vprintf+0x114>
  203ff0:	91003e60 	add	x0, x19, #0xf
  203ff4:	2a1403e1 	mov	w1, w20
  203ff8:	927df000 	and	x0, x0, #0xfffffffffffffff8
  203ffc:	f9400279 	ldr	x25, [x19]
  204000:	2a0103f4 	mov	w20, w1
  204004:	aa0003f3 	mov	x19, x0
  204008:	b6f80459 	tbz	x25, #63, 204090 <vprintf+0x15c>
  20400c:	528005a0 	mov	w0, #0x2d                  	// #45
  204010:	97fffdf1 	bl	2037d4 <putchar>
  204014:	cb1903e0 	neg	x0, x25
  204018:	51000718 	sub	w24, w24, #0x1
  20401c:	2a1803e3 	mov	w3, w24
  204020:	2a1a03e2 	mov	w2, w26
  204024:	52800141 	mov	w1, #0xa                   	// #10
  204028:	14000069 	b	2041cc <vprintf+0x298>
  20402c:	54fffe00 	b.eq	203fec <vprintf+0xb8>  // b.none
  204030:	37f801f4 	tbnz	w20, #31, 20406c <vprintf+0x138>
  204034:	91002e60 	add	x0, x19, #0xb
  204038:	2a1403e1 	mov	w1, w20
  20403c:	927df000 	and	x0, x0, #0xfffffffffffffff8
  204040:	b9800279 	ldrsw	x25, [x19]
  204044:	17ffffef 	b	204000 <vprintf+0xcc>
  204048:	11002281 	add	w1, w20, #0x8
  20404c:	7100003f 	cmp	w1, #0x0
  204050:	5400008d 	b.le	204060 <vprintf+0x12c>
  204054:	91003e60 	add	x0, x19, #0xf
  204058:	927df000 	and	x0, x0, #0xfffffffffffffff8
  20405c:	17ffffe8 	b	203ffc <vprintf+0xc8>
  204060:	aa1303e0 	mov	x0, x19
  204064:	8b34c2f3 	add	x19, x23, w20, sxtw
  204068:	17ffffe5 	b	203ffc <vprintf+0xc8>
  20406c:	11002281 	add	w1, w20, #0x8
  204070:	7100003f 	cmp	w1, #0x0
  204074:	5400008d 	b.le	204084 <vprintf+0x150>
  204078:	91002e60 	add	x0, x19, #0xb
  20407c:	927df000 	and	x0, x0, #0xfffffffffffffff8
  204080:	17fffff0 	b	204040 <vprintf+0x10c>
  204084:	aa1303e0 	mov	x0, x19
  204088:	8b34c2f3 	add	x19, x23, w20, sxtw
  20408c:	17ffffed 	b	204040 <vprintf+0x10c>
  204090:	aa1903e0 	mov	x0, x25
  204094:	17ffffe2 	b	20401c <vprintf+0xe8>
  204098:	37f80214 	tbnz	w20, #31, 2040d8 <vprintf+0x1a4>
  20409c:	91003e78 	add	x24, x19, #0xf
  2040a0:	2a1403f9 	mov	w25, w20
  2040a4:	927df318 	and	x24, x24, #0xfffffffffffffff8
  2040a8:	f9400274 	ldr	x20, [x19]
  2040ac:	d2800013 	mov	x19, #0x0                   	// #0
  2040b0:	d1000694 	sub	x20, x20, #0x1
  2040b4:	2a1303e1 	mov	w1, w19
  2040b8:	91000673 	add	x19, x19, #0x1
  2040bc:	38736a80 	ldrb	w0, [x20, x19]
  2040c0:	350001e0 	cbnz	w0, 2040fc <vprintf+0x1c8>
  2040c4:	0b0102b5 	add	w21, w21, w1
  2040c8:	2a1903f4 	mov	w20, w25
  2040cc:	aa1803f3 	mov	x19, x24
  2040d0:	910006d6 	add	x22, x22, #0x1
  2040d4:	17ffffa6 	b	203f6c <vprintf+0x38>
  2040d8:	11002299 	add	w25, w20, #0x8
  2040dc:	7100033f 	cmp	w25, #0x0
  2040e0:	5400008d 	b.le	2040f0 <vprintf+0x1bc>
  2040e4:	91003e78 	add	x24, x19, #0xf
  2040e8:	927df318 	and	x24, x24, #0xfffffffffffffff8
  2040ec:	17ffffef 	b	2040a8 <vprintf+0x174>
  2040f0:	aa1303f8 	mov	x24, x19
  2040f4:	8b34c2f3 	add	x19, x23, w20, sxtw
  2040f8:	17ffffec 	b	2040a8 <vprintf+0x174>
  2040fc:	97fffdb6 	bl	2037d4 <putchar>
  204100:	17ffffed 	b	2040b4 <vprintf+0x180>
  204104:	37f801f4 	tbnz	w20, #31, 204140 <vprintf+0x20c>
  204108:	91003e79 	add	x25, x19, #0xf
  20410c:	2a1403fc 	mov	w28, w20
  204110:	927df339 	and	x25, x25, #0xfffffffffffffff8
  204114:	f9400265 	ldr	x5, [x19]
  204118:	b50003a5 	cbnz	x5, 20418c <vprintf+0x258>
  20411c:	2a1803e3 	mov	w3, w24
  204120:	2a1a03e2 	mov	w2, w26
  204124:	aa0503e0 	mov	x0, x5
  204128:	52800201 	mov	w1, #0x10                  	// #16
  20412c:	2a1c03f4 	mov	w20, w28
  204130:	97ffff4d 	bl	203e64 <unsigned_num_print>
  204134:	aa1903f3 	mov	x19, x25
  204138:	0b0002b5 	add	w21, w21, w0
  20413c:	17ffffe5 	b	2040d0 <vprintf+0x19c>
  204140:	1100229c 	add	w28, w20, #0x8
  204144:	7100039f 	cmp	w28, #0x0
  204148:	5400008d 	b.le	204158 <vprintf+0x224>
  20414c:	91003e79 	add	x25, x19, #0xf
  204150:	927df339 	and	x25, x25, #0xfffffffffffffff8
  204154:	17fffff0 	b	204114 <vprintf+0x1e0>
  204158:	aa1303f9 	mov	x25, x19
  20415c:	8b34c2f3 	add	x19, x23, w20, sxtw
  204160:	17ffffed 	b	204114 <vprintf+0x1e0>
  204164:	f90037e5 	str	x5, [sp, #104]
  204168:	97fffd9b 	bl	2037d4 <putchar>
  20416c:	f94037e5 	ldr	x5, [sp, #104]
  204170:	2a1303e1 	mov	w1, w19
  204174:	91000673 	add	x19, x19, #0x1
  204178:	38746a60 	ldrb	w0, [x19, x20]
  20417c:	35ffff40 	cbnz	w0, 204164 <vprintf+0x230>
  204180:	0b0102b5 	add	w21, w21, w1
  204184:	51000b18 	sub	w24, w24, #0x2
  204188:	17ffffe5 	b	20411c <vprintf+0x1e8>
  20418c:	b0000014 	adrp	x20, 205000 <__TEXT_END__>
  204190:	d2800013 	mov	x19, #0x0                   	// #0
  204194:	911c6a94 	add	x20, x20, #0x71a
  204198:	17fffff6 	b	204170 <vprintf+0x23c>
  20419c:	7100041f 	cmp	w0, #0x1
  2041a0:	540001cd 	b.le	2041d8 <vprintf+0x2a4>
  2041a4:	37f80294 	tbnz	w20, #31, 2041f4 <vprintf+0x2c0>
  2041a8:	91003e61 	add	x1, x19, #0xf
  2041ac:	2a1403e2 	mov	w2, w20
  2041b0:	927df021 	and	x1, x1, #0xfffffffffffffff8
  2041b4:	f9400260 	ldr	x0, [x19]
  2041b8:	2a0203f4 	mov	w20, w2
  2041bc:	2a1803e3 	mov	w3, w24
  2041c0:	2a1a03e2 	mov	w2, w26
  2041c4:	aa0103f3 	mov	x19, x1
  2041c8:	52800201 	mov	w1, #0x10                  	// #16
  2041cc:	97ffff26 	bl	203e64 <unsigned_num_print>
  2041d0:	0b0002b5 	add	w21, w21, w0
  2041d4:	17ffffbf 	b	2040d0 <vprintf+0x19c>
  2041d8:	54fffe60 	b.eq	2041a4 <vprintf+0x270>  // b.none
  2041dc:	37f801f4 	tbnz	w20, #31, 204218 <vprintf+0x2e4>
  2041e0:	91002e61 	add	x1, x19, #0xb
  2041e4:	2a1403e2 	mov	w2, w20
  2041e8:	927df021 	and	x1, x1, #0xfffffffffffffff8
  2041ec:	b9400260 	ldr	w0, [x19]
  2041f0:	17fffff2 	b	2041b8 <vprintf+0x284>
  2041f4:	11002282 	add	w2, w20, #0x8
  2041f8:	7100005f 	cmp	w2, #0x0
  2041fc:	5400008d 	b.le	20420c <vprintf+0x2d8>
  204200:	91003e61 	add	x1, x19, #0xf
  204204:	927df021 	and	x1, x1, #0xfffffffffffffff8
  204208:	17ffffeb 	b	2041b4 <vprintf+0x280>
  20420c:	aa1303e1 	mov	x1, x19
  204210:	8b34c2f3 	add	x19, x23, w20, sxtw
  204214:	17ffffe8 	b	2041b4 <vprintf+0x280>
  204218:	11002282 	add	w2, w20, #0x8
  20421c:	7100005f 	cmp	w2, #0x0
  204220:	5400008d 	b.le	204230 <vprintf+0x2fc>
  204224:	91002e61 	add	x1, x19, #0xb
  204228:	927df021 	and	x1, x1, #0xfffffffffffffff8
  20422c:	17fffff0 	b	2041ec <vprintf+0x2b8>
  204230:	aa1303e1 	mov	x1, x19
  204234:	8b34c2f3 	add	x19, x23, w20, sxtw
  204238:	17ffffed 	b	2041ec <vprintf+0x2b8>
  20423c:	910006d6 	add	x22, x22, #0x1
  204240:	52800040 	mov	w0, #0x2                   	// #2
  204244:	17ffff5b 	b	203fb0 <vprintf+0x7c>
  204248:	11000400 	add	w0, w0, #0x1
  20424c:	910006d6 	add	x22, x22, #0x1
  204250:	17ffff58 	b	203fb0 <vprintf+0x7c>
  204254:	7100041f 	cmp	w0, #0x1
  204258:	5400012d 	b.le	20427c <vprintf+0x348>
  20425c:	37f801f4 	tbnz	w20, #31, 204298 <vprintf+0x364>
  204260:	91003e61 	add	x1, x19, #0xf
  204264:	2a1403e2 	mov	w2, w20
  204268:	927df021 	and	x1, x1, #0xfffffffffffffff8
  20426c:	f9400260 	ldr	x0, [x19]
  204270:	2a0203f4 	mov	w20, w2
  204274:	aa0103f3 	mov	x19, x1
  204278:	17ffff69 	b	20401c <vprintf+0xe8>
  20427c:	54ffff00 	b.eq	20425c <vprintf+0x328>  // b.none
  204280:	37f801f4 	tbnz	w20, #31, 2042bc <vprintf+0x388>
  204284:	91002e61 	add	x1, x19, #0xb
  204288:	2a1403e2 	mov	w2, w20
  20428c:	927df021 	and	x1, x1, #0xfffffffffffffff8
  204290:	b9400260 	ldr	w0, [x19]
  204294:	17fffff7 	b	204270 <vprintf+0x33c>
  204298:	11002282 	add	w2, w20, #0x8
  20429c:	7100005f 	cmp	w2, #0x0
  2042a0:	5400008d 	b.le	2042b0 <vprintf+0x37c>
  2042a4:	91003e61 	add	x1, x19, #0xf
  2042a8:	927df021 	and	x1, x1, #0xfffffffffffffff8
  2042ac:	17fffff0 	b	20426c <vprintf+0x338>
  2042b0:	aa1303e1 	mov	x1, x19
  2042b4:	8b34c2f3 	add	x19, x23, w20, sxtw
  2042b8:	17ffffed 	b	20426c <vprintf+0x338>
  2042bc:	11002282 	add	w2, w20, #0x8
  2042c0:	7100005f 	cmp	w2, #0x0
  2042c4:	5400008d 	b.le	2042d4 <vprintf+0x3a0>
  2042c8:	91002e61 	add	x1, x19, #0xb
  2042cc:	927df021 	and	x1, x1, #0xfffffffffffffff8
  2042d0:	17fffff0 	b	204290 <vprintf+0x35c>
  2042d4:	aa1303e1 	mov	x1, x19
  2042d8:	8b34c2f3 	add	x19, x23, w20, sxtw
  2042dc:	17ffffed 	b	204290 <vprintf+0x35c>
  2042e0:	910006d6 	add	x22, x22, #0x1
  2042e4:	52800018 	mov	w24, #0x0                   	// #0
  2042e8:	394002c1 	ldrb	w1, [x22]
  2042ec:	5100c021 	sub	w1, w1, #0x30
  2042f0:	12001c22 	and	w2, w1, #0xff
  2042f4:	7100245f 	cmp	w2, #0x9
  2042f8:	54ffe5a8 	b.hi	203fac <vprintf+0x78>  // b.pmore
  2042fc:	52800142 	mov	w2, #0xa                   	// #10
  204300:	910006d6 	add	x22, x22, #0x1
  204304:	1b020718 	madd	w24, w24, w2, w1
  204308:	17fffff8 	b	2042e8 <vprintf+0x3b4>
  20430c:	110006b5 	add	w21, w21, #0x1
  204310:	97fffd31 	bl	2037d4 <putchar>
  204314:	17ffff16 	b	203f6c <vprintf+0x38>
  204318:	12800015 	mov	w21, #0xffffffff            	// #-1
  20431c:	17ffff16 	b	203f74 <vprintf+0x40>

0000000000204320 <xlat_arch_current_el>:
  204320:	d5384240 	mrs	x0, currentel
  204324:	53020c00 	ubfx	w0, w0, #2, #2
  204328:	d65f03c0 	ret

000000000020432c <xlat_arch_regime_get_xn_desc>:
  20432c:	7100041f 	cmp	w0, #0x1
  204330:	d2e00c01 	mov	x1, #0x60000000000000      	// #27021597764222976
  204334:	d2e00800 	mov	x0, #0x40000000000000      	// #18014398509481984
  204338:	9a800020 	csel	x0, x1, x0, eq  // eq = none
  20433c:	d65f03c0 	ret

0000000000204340 <xlat_desc>:
  204340:	a9bd7bfd 	stp	x29, x30, [sp, #-48]!
  204344:	71000c7f 	cmp	w3, #0x3
  204348:	910003fd 	mov	x29, sp
  20434c:	a90153f3 	stp	x19, x20, [sp, #16]
  204350:	2a0103f4 	mov	w20, w1
  204354:	d2800073 	mov	x19, #0x3                   	// #3
  204358:	9a9f0663 	csinc	x3, x19, xzr, eq  // eq = none
  20435c:	f27d029f 	tst	x20, #0x8
  204360:	9a9f17f3 	cset	x19, eq  // eq = none
  204364:	d37f7e81 	ubfiz	x1, x20, #1, #32
  204368:	b9405800 	ldr	w0, [x0, #88]
  20436c:	927b0021 	and	x1, x1, #0x20
  204370:	f90013f5 	str	x21, [sp, #32]
  204374:	aa020021 	orr	x1, x1, x2
  204378:	aa131c73 	orr	x19, x3, x19, lsl #7
  20437c:	7100041f 	cmp	w0, #0x1
  204380:	aa010273 	orr	x19, x19, x1
  204384:	540001a1 	b.ne	2043b8 <xlat_desc+0x78>  // b.any
  204388:	b2760262 	orr	x2, x19, #0x400
  20438c:	f27a029f 	tst	x20, #0x40
  204390:	d2808801 	mov	x1, #0x440                 	// #1088
  204394:	aa010273 	orr	x19, x19, x1
  204398:	9a821273 	csel	x19, x19, x2, ne  // ne = any
  20439c:	72000a95 	ands	w21, w20, #0x7
  2043a0:	54000121 	b.ne	2043c4 <xlat_desc+0x84>  // b.any
  2043a4:	97ffffe2 	bl	20432c <xlat_arch_regime_get_xn_desc>
  2043a8:	aa000273 	orr	x19, x19, x0
  2043ac:	d2804080 	mov	x0, #0x204                 	// #516
  2043b0:	aa000273 	orr	x19, x19, x0
  2043b4:	14000012 	b	2043fc <xlat_desc+0xbc>
  2043b8:	d2808802 	mov	x2, #0x440                 	// #1088
  2043bc:	aa020273 	orr	x19, x19, x2
  2043c0:	17fffff7 	b	20439c <xlat_desc+0x5c>
  2043c4:	52800501 	mov	w1, #0x28                  	// #40
  2043c8:	6a01029f 	tst	w20, w1
  2043cc:	54000060 	b.eq	2043d8 <xlat_desc+0x98>  // b.none
  2043d0:	97ffffd7 	bl	20432c <xlat_arch_regime_get_xn_desc>
  2043d4:	aa000273 	orr	x19, x19, x0
  2043d8:	71000abf 	cmp	w21, #0x2
  2043dc:	540001a1 	b.ne	204410 <xlat_desc+0xd0>  // b.any
  2043e0:	12190694 	and	w20, w20, #0x180
  2043e4:	7106029f 	cmp	w20, #0x180
  2043e8:	540000a0 	b.eq	2043fc <xlat_desc+0xbc>  // b.none
  2043ec:	b2770260 	orr	x0, x19, #0x200
  2043f0:	7104029f 	cmp	w20, #0x100
  2043f4:	b2780673 	orr	x19, x19, #0x300
  2043f8:	9a801273 	csel	x19, x19, x0, ne  // ne = any
  2043fc:	aa1303e0 	mov	x0, x19
  204400:	a94153f3 	ldp	x19, x20, [sp, #16]
  204404:	f94013f5 	ldr	x21, [sp, #32]
  204408:	a8c37bfd 	ldp	x29, x30, [sp], #48
  20440c:	d65f03c0 	ret
  204410:	d2804100 	mov	x0, #0x208                 	// #520
  204414:	17ffffe7 	b	2043b0 <xlat_desc+0x70>

0000000000204418 <xlat_mmap_print>:
  204418:	d65f03c0 	ret

000000000020441c <xlat_tables_map_region>:
  20441c:	a9b97bfd 	stp	x29, x30, [sp, #-112]!
  204420:	910003fd 	mov	x29, sp
  204424:	a90573fb 	stp	x27, x28, [sp, #80]
  204428:	aa0103fc 	mov	x28, x1
  20442c:	110004bb 	add	w27, w5, #0x1
  204430:	a90153f3 	stp	x19, x20, [sp, #16]
  204434:	12800114 	mov	w20, #0xfffffff7            	// #-9
  204438:	a9025bf5 	stp	x21, x22, [sp, #32]
  20443c:	1b147cb4 	mul	w20, w5, w20
  204440:	92800016 	mov	x22, #0xffffffffffffffff    	// #-1
  204444:	f9400421 	ldr	x1, [x1, #8]
  204448:	11009e94 	add	w20, w20, #0x27
  20444c:	f9400b95 	ldr	x21, [x28, #16]
  204450:	a90363f7 	stp	x23, x24, [sp, #48]
  204454:	aa0003f8 	mov	x24, x0
  204458:	8b150035 	add	x21, x1, x21
  20445c:	d2800037 	mov	x23, #0x1                   	// #1
  204460:	d10006a0 	sub	x0, x21, #0x1
  204464:	9ad422f7 	lsl	x23, x23, x20
  204468:	f90033e0 	str	x0, [sp, #96]
  20446c:	cb1703e0 	neg	x0, x23
  204470:	eb02003f 	cmp	x1, x2
  204474:	8a010000 	and	x0, x0, x1
  204478:	9a828000 	csel	x0, x0, x2, hi  // hi = pmore
  20447c:	9ad422d6 	lsl	x22, x22, x20
  204480:	cb020013 	sub	x19, x0, x2
  204484:	aa3603f6 	mvn	x22, x22
  204488:	a9046bf9 	stp	x25, x26, [sp, #64]
  20448c:	2a0503fa 	mov	w26, w5
  204490:	9ad42673 	lsr	x19, x19, x20
  204494:	b9006bf3 	str	w19, [sp, #104]
  204498:	8b334c73 	add	x19, x3, w19, uxtw #3
  20449c:	b9006fe4 	str	w4, [sp, #108]
  2044a0:	294d0be1 	ldp	w1, w2, [sp, #104]
  2044a4:	6b02003f 	cmp	w1, w2
  2044a8:	54000362 	b.cs	204514 <xlat_tables_map_region+0xf8>  // b.hs, b.nlast
  2044ac:	a9408785 	ldp	x5, x1, [x28, #8]
  2044b0:	8b170019 	add	x25, x0, x23
  2044b4:	f9400263 	ldr	x3, [x19]
  2044b8:	d1000735 	sub	x21, x25, #0x1
  2044bc:	12000464 	and	w4, w3, #0x3
  2044c0:	8b0100a1 	add	x1, x5, x1
  2044c4:	eb0000bf 	cmp	x5, x0
  2044c8:	d1000421 	sub	x1, x1, #0x1
  2044cc:	540006a8 	b.hi	2045a0 <xlat_tables_map_region+0x184>  // b.pmore
  2044d0:	eb15003f 	cmp	x1, x21
  2044d4:	54000663 	b.cc	2045a0 <xlat_tables_map_region+0x184>  // b.lo, b.ul, b.last
  2044d8:	f9400382 	ldr	x2, [x28]
  2044dc:	71000f5f 	cmp	w26, #0x3
  2044e0:	cb050042 	sub	x2, x2, x5
  2044e4:	8b000042 	add	x2, x2, x0
  2044e8:	540001a1 	b.ne	20451c <xlat_tables_map_region+0x100>  // b.any
  2044ec:	71000c9f 	cmp	w4, #0x3
  2044f0:	540006a1 	b.ne	2045c4 <xlat_tables_map_region+0x1a8>  // b.any
  2044f4:	b9406be0 	ldr	w0, [sp, #104]
  2044f8:	91002273 	add	x19, x19, #0x8
  2044fc:	11000400 	add	w0, w0, #0x1
  204500:	b9006be0 	str	w0, [sp, #104]
  204504:	f94033e0 	ldr	x0, [sp, #96]
  204508:	eb19001f 	cmp	x0, x25
  20450c:	aa1903e0 	mov	x0, x25
  204510:	54fffc88 	b.hi	2044a0 <xlat_tables_map_region+0x84>  // b.pmore
  204514:	d1000400 	sub	x0, x0, #0x1
  204518:	1400001b 	b	204584 <xlat_tables_map_region+0x168>
  20451c:	71000c9f 	cmp	w4, #0x3
  204520:	540004a0 	b.eq	2045b4 <xlat_tables_map_region+0x198>  // b.none
  204524:	35fffe84 	cbnz	w4, 2044f4 <xlat_tables_map_region+0xd8>
  204528:	ea16005f 	tst	x2, x22
  20452c:	540000a1 	b.ne	204540 <xlat_tables_map_region+0x124>  // b.any
  204530:	3400009a 	cbz	w26, 204540 <xlat_tables_map_region+0x124>
  204534:	f9401381 	ldr	x1, [x28, #32]
  204538:	9ad42421 	lsr	x1, x1, x20
  20453c:	b5000441 	cbnz	x1, 2045c4 <xlat_tables_map_region+0x1a8>
  204540:	b9402f03 	ldr	w3, [x24, #44]
  204544:	f9401301 	ldr	x1, [x24, #32]
  204548:	11000462 	add	w2, w3, #0x1
  20454c:	b9002f02 	str	w2, [x24, #44]
  204550:	93747c63 	sbfiz	x3, x3, #12, #32
  204554:	ab030023 	adds	x3, x1, x3
  204558:	54000160 	b.eq	204584 <xlat_tables_map_region+0x168>  // b.none
  20455c:	2a1b03e5 	mov	w5, w27
  204560:	b2400461 	orr	x1, x3, #0x3
  204564:	52804004 	mov	w4, #0x200                 	// #512
  204568:	f9000261 	str	x1, [x19]
  20456c:	aa0003e2 	mov	x2, x0
  204570:	aa1c03e1 	mov	x1, x28
  204574:	aa1803e0 	mov	x0, x24
  204578:	97ffffa9 	bl	20441c <xlat_tables_map_region>
  20457c:	eb15001f 	cmp	x0, x21
  204580:	54fffba0 	b.eq	2044f4 <xlat_tables_map_region+0xd8>  // b.none
  204584:	a94153f3 	ldp	x19, x20, [sp, #16]
  204588:	a9425bf5 	ldp	x21, x22, [sp, #32]
  20458c:	a94363f7 	ldp	x23, x24, [sp, #48]
  204590:	a9446bf9 	ldp	x25, x26, [sp, #64]
  204594:	a94573fb 	ldp	x27, x28, [sp, #80]
  204598:	a8c77bfd 	ldp	x29, x30, [sp], #112
  20459c:	d65f03c0 	ret
  2045a0:	eb1500bf 	cmp	x5, x21
  2045a4:	54000069 	b.ls	2045b0 <xlat_tables_map_region+0x194>  // b.plast
  2045a8:	eb01001f 	cmp	x0, x1
  2045ac:	54fffa48 	b.hi	2044f4 <xlat_tables_map_region+0xd8>  // b.pmore
  2045b0:	34fffc84 	cbz	w4, 204540 <xlat_tables_map_region+0x124>
  2045b4:	2a1b03e5 	mov	w5, w27
  2045b8:	92748c63 	and	x3, x3, #0xfffffffff000
  2045bc:	52804004 	mov	w4, #0x200                 	// #512
  2045c0:	17ffffeb 	b	20456c <xlat_tables_map_region+0x150>
  2045c4:	b9401b81 	ldr	w1, [x28, #24]
  2045c8:	2a1a03e3 	mov	w3, w26
  2045cc:	aa1803e0 	mov	x0, x24
  2045d0:	97ffff5c 	bl	204340 <xlat_desc>
  2045d4:	f9000260 	str	x0, [x19]
  2045d8:	17ffffc7 	b	2044f4 <xlat_tables_map_region+0xd8>

00000000002045dc <xlat_tables_print>:
  2045dc:	d65f03c0 	ret
	...

0000000000204800 <sync_exception_sp_el0>:
  204800:	17fff055 	b	200954 <report_unhandled_exception>
	...

0000000000204880 <irq_sp_el0>:
  204880:	17fff035 	b	200954 <report_unhandled_exception>
	...

0000000000204900 <fiq_sp_el0>:
  204900:	17fff015 	b	200954 <report_unhandled_exception>
	...

0000000000204980 <serror_sp_el0>:
  204980:	97ffefbe 	bl	200878 <plat_handle_el3_ea>
	...

0000000000204a00 <sync_exception_sp_elx>:
  204a00:	17ffefd5 	b	200954 <report_unhandled_exception>
	...

0000000000204a80 <irq_sp_elx>:
  204a80:	17ffefb5 	b	200954 <report_unhandled_exception>
	...

0000000000204b00 <fiq_sp_elx>:
  204b00:	17ffef95 	b	200954 <report_unhandled_exception>
	...

0000000000204b80 <serror_sp_elx>:
  204b80:	97ffef3e 	bl	200878 <plat_handle_el3_ea>
	...

0000000000204c00 <sync_exception_aarch64>:
  204c00:	a90efbfd 	stp	x29, x30, [sp, #232]
  204c04:	97ffef77 	bl	2009e0 <save_and_update_ptw_el1_sys_regs>
  204c08:	a94efbfd 	ldp	x29, x30, [sp, #232]
  204c0c:	d50344ff 	msr	daifclr, #0x4
  204c10:	f9007bfe 	str	x30, [sp, #240]
  204c14:	d53e521e 	mrs	x30, esr_el3
  204c18:	d35a7fde 	ubfx	x30, x30, #26, #6
  204c1c:	f1004fdf 	cmp	x30, #0x13
  204c20:	54fdf340 	b.eq	200a88 <smc_handler>  // b.none
  204c24:	f1005fdf 	cmp	x30, #0x17
  204c28:	54fdf320 	b.eq	200a8c <smc_handler64>  // b.none
  204c2c:	f9407bfe 	ldr	x30, [sp, #240]
  204c30:	17ffee69 	b	2005d4 <enter_lower_el_sync_ea>
	...

0000000000204c80 <irq_aarch64>:
  204c80:	a90efbfd 	stp	x29, x30, [sp, #232]
  204c84:	97ffef57 	bl	2009e0 <save_and_update_ptw_el1_sys_regs>
  204c88:	a94efbfd 	ldp	x29, x30, [sp, #232]
  204c8c:	d50344ff 	msr	daifclr, #0x4
  204c90:	f9007bfe 	str	x30, [sp, #240]
  204c94:	97ffef60 	bl	200a14 <save_gp_pmcr_pauth_regs>
  204c98:	d53e4000 	mrs	x0, spsr_el3
  204c9c:	d53e4021 	mrs	x1, elr_el3
  204ca0:	a91187e0 	stp	x0, x1, [sp, #280]
  204ca4:	f9408be2 	ldr	x2, [sp, #272]
  204ca8:	910003f4 	mov	x20, sp
  204cac:	d50040bf 	msr	spsel, #0x0
  204cb0:	9100005f 	mov	sp, x2
  204cb4:	97fff4a0 	bl	201f34 <plat_ic_get_pending_interrupt_type>
  204cb8:	f1000c1f 	cmp	x0, #0x3
  204cbc:	54000140 	b.eq	204ce4 <interrupt_exit_irq_aarch64>  // b.none
  204cc0:	97fff206 	bl	2014d8 <get_interrupt_type_handler>
  204cc4:	b4000100 	cbz	x0, 204ce4 <interrupt_exit_irq_aarch64>
  204cc8:	aa0003f5 	mov	x21, x0
  204ccc:	b2407fe0 	mov	x0, #0xffffffff            	// #4294967295
  204cd0:	d53e1102 	mrs	x2, scr_el3
  204cd4:	d3400041 	ubfx	x1, x2, #0, #1
  204cd8:	aa1403e2 	mov	x2, x20
  204cdc:	aa1f03e3 	mov	x3, xzr
  204ce0:	d63f02a0 	blr	x21

0000000000204ce4 <interrupt_exit_irq_aarch64>:
  204ce4:	17ffee0d 	b	200518 <el3_exit>
	...

0000000000204d00 <fiq_aarch64>:
  204d00:	a90efbfd 	stp	x29, x30, [sp, #232]
  204d04:	97ffef37 	bl	2009e0 <save_and_update_ptw_el1_sys_regs>
  204d08:	a94efbfd 	ldp	x29, x30, [sp, #232]
  204d0c:	d50344ff 	msr	daifclr, #0x4
  204d10:	f9007bfe 	str	x30, [sp, #240]
  204d14:	97ffef40 	bl	200a14 <save_gp_pmcr_pauth_regs>
  204d18:	d53e4000 	mrs	x0, spsr_el3
  204d1c:	d53e4021 	mrs	x1, elr_el3
  204d20:	a91187e0 	stp	x0, x1, [sp, #280]
  204d24:	f9408be2 	ldr	x2, [sp, #272]
  204d28:	910003f4 	mov	x20, sp
  204d2c:	d50040bf 	msr	spsel, #0x0
  204d30:	9100005f 	mov	sp, x2
  204d34:	97fff480 	bl	201f34 <plat_ic_get_pending_interrupt_type>
  204d38:	f1000c1f 	cmp	x0, #0x3
  204d3c:	54000140 	b.eq	204d64 <interrupt_exit_fiq_aarch64>  // b.none
  204d40:	97fff1e6 	bl	2014d8 <get_interrupt_type_handler>
  204d44:	b4000100 	cbz	x0, 204d64 <interrupt_exit_fiq_aarch64>
  204d48:	aa0003f5 	mov	x21, x0
  204d4c:	b2407fe0 	mov	x0, #0xffffffff            	// #4294967295
  204d50:	d53e1102 	mrs	x2, scr_el3
  204d54:	d3400041 	ubfx	x1, x2, #0, #1
  204d58:	aa1403e2 	mov	x2, x20
  204d5c:	aa1f03e3 	mov	x3, xzr
  204d60:	d63f02a0 	blr	x21

0000000000204d64 <interrupt_exit_fiq_aarch64>:
  204d64:	17ffeded 	b	200518 <el3_exit>
	...

0000000000204d80 <serror_aarch64>:
  204d80:	a90efbfd 	stp	x29, x30, [sp, #232]
  204d84:	97ffef17 	bl	2009e0 <save_and_update_ptw_el1_sys_regs>
  204d88:	a94efbfd 	ldp	x29, x30, [sp, #232]
  204d8c:	d50344ff 	msr	daifclr, #0x4
  204d90:	17ffee0a 	b	2005b8 <enter_lower_el_async_ea>
	...

0000000000204e00 <sync_exception_aarch32>:
  204e00:	a90efbfd 	stp	x29, x30, [sp, #232]
  204e04:	97ffeef7 	bl	2009e0 <save_and_update_ptw_el1_sys_regs>
  204e08:	a94efbfd 	ldp	x29, x30, [sp, #232]
  204e0c:	d50344ff 	msr	daifclr, #0x4
  204e10:	f9007bfe 	str	x30, [sp, #240]
  204e14:	d53e521e 	mrs	x30, esr_el3
  204e18:	d35a7fde 	ubfx	x30, x30, #26, #6
  204e1c:	f1004fdf 	cmp	x30, #0x13
  204e20:	54fde340 	b.eq	200a88 <smc_handler>  // b.none
  204e24:	f1005fdf 	cmp	x30, #0x17
  204e28:	54fde320 	b.eq	200a8c <smc_handler64>  // b.none
  204e2c:	f9407bfe 	ldr	x30, [sp, #240]
  204e30:	17ffede9 	b	2005d4 <enter_lower_el_sync_ea>
	...

0000000000204e80 <irq_aarch32>:
  204e80:	a90efbfd 	stp	x29, x30, [sp, #232]
  204e84:	97ffeed7 	bl	2009e0 <save_and_update_ptw_el1_sys_regs>
  204e88:	a94efbfd 	ldp	x29, x30, [sp, #232]
  204e8c:	d50344ff 	msr	daifclr, #0x4
  204e90:	f9007bfe 	str	x30, [sp, #240]
  204e94:	97ffeee0 	bl	200a14 <save_gp_pmcr_pauth_regs>
  204e98:	d53e4000 	mrs	x0, spsr_el3
  204e9c:	d53e4021 	mrs	x1, elr_el3
  204ea0:	a91187e0 	stp	x0, x1, [sp, #280]
  204ea4:	f9408be2 	ldr	x2, [sp, #272]
  204ea8:	910003f4 	mov	x20, sp
  204eac:	d50040bf 	msr	spsel, #0x0
  204eb0:	9100005f 	mov	sp, x2
  204eb4:	97fff420 	bl	201f34 <plat_ic_get_pending_interrupt_type>
  204eb8:	f1000c1f 	cmp	x0, #0x3
  204ebc:	54000140 	b.eq	204ee4 <interrupt_exit_irq_aarch32>  // b.none
  204ec0:	97fff186 	bl	2014d8 <get_interrupt_type_handler>
  204ec4:	b4000100 	cbz	x0, 204ee4 <interrupt_exit_irq_aarch32>
  204ec8:	aa0003f5 	mov	x21, x0
  204ecc:	b2407fe0 	mov	x0, #0xffffffff            	// #4294967295
  204ed0:	d53e1102 	mrs	x2, scr_el3
  204ed4:	d3400041 	ubfx	x1, x2, #0, #1
  204ed8:	aa1403e2 	mov	x2, x20
  204edc:	aa1f03e3 	mov	x3, xzr
  204ee0:	d63f02a0 	blr	x21

0000000000204ee4 <interrupt_exit_irq_aarch32>:
  204ee4:	17ffed8d 	b	200518 <el3_exit>
	...

0000000000204f00 <fiq_aarch32>:
  204f00:	a90efbfd 	stp	x29, x30, [sp, #232]
  204f04:	97ffeeb7 	bl	2009e0 <save_and_update_ptw_el1_sys_regs>
  204f08:	a94efbfd 	ldp	x29, x30, [sp, #232]
  204f0c:	d50344ff 	msr	daifclr, #0x4
  204f10:	f9007bfe 	str	x30, [sp, #240]
  204f14:	97ffeec0 	bl	200a14 <save_gp_pmcr_pauth_regs>
  204f18:	d53e4000 	mrs	x0, spsr_el3
  204f1c:	d53e4021 	mrs	x1, elr_el3
  204f20:	a91187e0 	stp	x0, x1, [sp, #280]
  204f24:	f9408be2 	ldr	x2, [sp, #272]
  204f28:	910003f4 	mov	x20, sp
  204f2c:	d50040bf 	msr	spsel, #0x0
  204f30:	9100005f 	mov	sp, x2
  204f34:	97fff400 	bl	201f34 <plat_ic_get_pending_interrupt_type>
  204f38:	f1000c1f 	cmp	x0, #0x3
  204f3c:	54000140 	b.eq	204f64 <interrupt_exit_fiq_aarch32>  // b.none
  204f40:	97fff166 	bl	2014d8 <get_interrupt_type_handler>
  204f44:	b4000100 	cbz	x0, 204f64 <interrupt_exit_fiq_aarch32>
  204f48:	aa0003f5 	mov	x21, x0
  204f4c:	b2407fe0 	mov	x0, #0xffffffff            	// #4294967295
  204f50:	d53e1102 	mrs	x2, scr_el3
  204f54:	d3400041 	ubfx	x1, x2, #0, #1
  204f58:	aa1403e2 	mov	x2, x20
  204f5c:	aa1f03e3 	mov	x3, xzr
  204f60:	d63f02a0 	blr	x21

0000000000204f64 <interrupt_exit_fiq_aarch32>:
  204f64:	17ffed6d 	b	200518 <el3_exit>
	...

0000000000204f80 <serror_aarch32>:
  204f80:	a90efbfd 	stp	x29, x30, [sp, #232]
  204f84:	97ffee97 	bl	2009e0 <save_and_update_ptw_el1_sys_regs>
  204f88:	a94efbfd 	ldp	x29, x30, [sp, #232]
  204f8c:	d50344ff 	msr	daifclr, #0x4
  204f90:	17ffed8a 	b	2005b8 <enter_lower_el_async_ea>
	...
